Component: ARM Compiler 5.05 update 1 (build 106) Tool: armlink [4d0efa]

==============================================================================

Section Cross References

    main.o(.text) refers to stm32f4xx_hal.o(.text) for HAL_Init
    main.o(.text) refers to init.o(.text) for SystemClock_Config()
    main.o(.text) refers to memory_alloc.o(.text) for MemoryAllocator::operator ()(void*, unsigned)
    main.o(.text) refers to main.o(t._ZN14Frame2DManagerIsEclEv) for Frame2DManager<short>::operator ()()
    main.o(.text) refers to main.o(t._ZN14Frame2DManagerIsE6CreateE3b2D) for Frame2DManager<short>::Create(b2D)
    main.o(.text) refers to screen.o(.text) for ScreenManager::operator ()()
    main.o(.text) refers to main.o(t._ZN11Print_ClassI6ScreenE7UseFontEPK5tFont) for Print_Class<Screen>::UseFont(const tFont*)
    main.o(.text) refers to tftili9486.o(.text) for LcdDriverDef::Init(unsigned)
    main.o(.text) refers to physic.o(.text) for Physic::Ball2DGroup::operator ()(b2D, float, float)
    main.o(.text) refers to main.o(t._ZN10Fill_ClassI6ScreenE4FillEt) for Fill_Class<Screen>::Fill(unsigned short)
    main.o(.text) refers to main.o(t._ZN12Bitmap_ClassI6ScreenE4FillI8tTextureEEiPT_t) for int Bitmap_Class<Screen>::Fill<tTexture>(T1*, unsigned short)
    main.o(.text) refers to main.o(t._ZN12Bitmap_ClassI6ScreenE13NewBitmapOpenER8tTexture) for Bitmap_Class<Screen>::NewBitmapOpen(tTexture&)
    main.o(.text) refers to main.o(t._ZN12Bitmap_ClassI6ScreenE14NewBitmapCloseEv) for Bitmap_Class<Screen>::NewBitmapClose()
    main.o(.text) refers to main.o(t._ZN12Bitmap_ClassI6ScreenE8SetScaleEff) for Bitmap_Class<Screen>::SetScale(float, float)
    main.o(.text) refers to main.o(t._ZN12Bitmap_ClassI6ScreenE4TileI8tTextureEEi3b2DPT_t) for int Bitmap_Class<Screen>::Tile<tTexture>(b2D, T1*, unsigned short)
    main.o(.text) refers to main.o(t._ZN12Circle_ClassI6ScreenE4DrawEssft) for Circle_Class<Screen>::Draw(short, short, float, unsigned short)
    main.o(.text) refers to aeabi_atexit.o(i.__aeabi_atexit) for __aeabi_atexit
    main.o(.text) refers to device.o(.bss) for Heap
    main.o(.text) refers to main.o(.constdata) for .constdata
    main.o(.text) refers to main.o(.data) for .data
    main.o(.text) refers to main.o(.bss) for .bss
    main.o(.ARM.exidx) refers to main.o(.text) for .text
    main.o(.constdata) refers to main.o(.constdata) for image_data_Image0
    main.o(.constdata) refers to main.o(.constdata) for image_data_Font_0x44
    main.o(.constdata) refers to main.o(.constdata) for Font_array
    main.o(.constdata) refers to main.o(.constdata) for image_data_Font_0x20
    main.o(.constdata) refers to main.o(.constdata) for image_data_Font_0x21
    main.o(.constdata) refers to main.o(.constdata) for image_data_Font_0x22
    main.o(.constdata) refers to main.o(.constdata) for image_data_Font_0x23
    main.o(.constdata) refers to main.o(.constdata) for image_data_Font_0x24
    main.o(.constdata) refers to main.o(.constdata) for image_data_Font_0x25
    main.o(.constdata) refers to main.o(.constdata) for image_data_Font_0x26
    main.o(.constdata) refers to main.o(.constdata) for image_data_Font_0x27
    main.o(.constdata) refers to main.o(.constdata) for image_data_Font_0x28
    main.o(.constdata) refers to main.o(.constdata) for image_data_Font_0x29
    main.o(.constdata) refers to main.o(.constdata) for image_data_Font_0x2a
    main.o(.constdata) refers to main.o(.constdata) for image_data_Font_0x2b
    main.o(.constdata) refers to main.o(.constdata) for image_data_Font_0x2c
    main.o(.constdata) refers to main.o(.constdata) for image_data_Font_0x2d
    main.o(.constdata) refers to main.o(.constdata) for image_data_Font_0x2e
    main.o(.constdata) refers to main.o(.constdata) for image_data_Font_0x2f
    main.o(.constdata) refers to main.o(.constdata) for image_data_Font_0x30
    main.o(.constdata) refers to main.o(.constdata) for image_data_Font_0x31
    main.o(.constdata) refers to main.o(.constdata) for image_data_Font_0x32
    main.o(.constdata) refers to main.o(.constdata) for image_data_Font_0x33
    main.o(.constdata) refers to main.o(.constdata) for image_data_Font_0x34
    main.o(.constdata) refers to main.o(.constdata) for image_data_Font_0x35
    main.o(.constdata) refers to main.o(.constdata) for image_data_Font_0x36
    main.o(.constdata) refers to main.o(.constdata) for image_data_Font_0x37
    main.o(.constdata) refers to main.o(.constdata) for image_data_Font_0x38
    main.o(.constdata) refers to main.o(.constdata) for image_data_Font_0x39
    main.o(.constdata) refers to main.o(.constdata) for image_data_Font_0x3a
    main.o(.constdata) refers to main.o(.constdata) for image_data_Font_0x3b
    main.o(.constdata) refers to main.o(.constdata) for image_data_Font_0x3c
    main.o(.constdata) refers to main.o(.constdata) for image_data_Font_0x3d
    main.o(.constdata) refers to main.o(.constdata) for image_data_Font_0x3e
    main.o(.constdata) refers to main.o(.constdata) for image_data_Font_0x3f
    main.o(.constdata) refers to main.o(.constdata) for image_data_Font_0x40
    main.o(.constdata) refers to main.o(.constdata) for image_data_Font_0x41
    main.o(.constdata) refers to main.o(.constdata) for image_data_Font_0x42
    main.o(.constdata) refers to main.o(.constdata) for image_data_Font_0x43
    main.o(.constdata) refers to main.o(.constdata) for image_data_Font_0x45
    main.o(.constdata) refers to main.o(.constdata) for image_data_Font_0x46
    main.o(.constdata) refers to main.o(.constdata) for image_data_Font_0x47
    main.o(.constdata) refers to main.o(.constdata) for image_data_Font_0x48
    main.o(.constdata) refers to main.o(.constdata) for image_data_Font_0x49
    main.o(.constdata) refers to main.o(.constdata) for image_data_Font_0x4a
    main.o(.constdata) refers to main.o(.constdata) for image_data_Font_0x4b
    main.o(.constdata) refers to main.o(.constdata) for image_data_Font_0x4c
    main.o(.constdata) refers to main.o(.constdata) for image_data_Font_0x4d
    main.o(.constdata) refers to main.o(.constdata) for image_data_Font_0x4e
    main.o(.constdata) refers to main.o(.constdata) for image_data_Font_0x4f
    main.o(.constdata) refers to main.o(.constdata) for image_data_Font_0x50
    main.o(.constdata) refers to main.o(.constdata) for image_data_Font_0x51
    main.o(.constdata) refers to main.o(.constdata) for image_data_Font_0x52
    main.o(.constdata) refers to main.o(.constdata) for image_data_Font_0x53
    main.o(.constdata) refers to main.o(.constdata) for image_data_Font_0x54
    main.o(.constdata) refers to main.o(.constdata) for image_data_Font_0x55
    main.o(.constdata) refers to main.o(.constdata) for image_data_Font_0x56
    main.o(.constdata) refers to main.o(.constdata) for image_data_Font_0x57
    main.o(.constdata) refers to main.o(.constdata) for image_data_Font_0x58
    main.o(.constdata) refers to main.o(.constdata) for image_data_Font_0x59
    main.o(.constdata) refers to main.o(.constdata) for image_data_Font_0x5a
    main.o(.constdata) refers to main.o(.constdata) for image_data_Font_0x5b
    main.o(.constdata) refers to main.o(.constdata) for image_data_Font_0x5c
    main.o(.constdata) refers to main.o(.constdata) for image_data_Font_0x5d
    main.o(.constdata) refers to main.o(.constdata) for image_data_Font_0x5e
    main.o(.constdata) refers to main.o(.constdata) for image_data_Font_0x5f
    main.o(.constdata) refers to main.o(.constdata) for image_data_Font_0x60
    main.o(.constdata) refers to main.o(.constdata) for image_data_Font_0x61
    main.o(.constdata) refers to main.o(.constdata) for image_data_Font_0x62
    main.o(.constdata) refers to main.o(.constdata) for image_data_Font_0x63
    main.o(.constdata) refers to main.o(.constdata) for image_data_Font_0x64
    main.o(.constdata) refers to main.o(.constdata) for image_data_Font_0x65
    main.o(.constdata) refers to main.o(.constdata) for image_data_Font_0x66
    main.o(.constdata) refers to main.o(.constdata) for image_data_Font_0x67
    main.o(.constdata) refers to main.o(.constdata) for image_data_Font_0x68
    main.o(.constdata) refers to main.o(.constdata) for image_data_Font_0x69
    main.o(.constdata) refers to main.o(.constdata) for image_data_Font_0x6a
    main.o(.constdata) refers to main.o(.constdata) for image_data_Font_0x6b
    main.o(.constdata) refers to main.o(.constdata) for image_data_Font_0x6c
    main.o(.constdata) refers to main.o(.constdata) for image_data_Font_0x6d
    main.o(.constdata) refers to main.o(.constdata) for image_data_Font_0x6e
    main.o(.constdata) refers to main.o(.constdata) for image_data_Font_0x6f
    main.o(.constdata) refers to main.o(.constdata) for image_data_Font_0x70
    main.o(.constdata) refers to main.o(.constdata) for image_data_Font_0x71
    main.o(.constdata) refers to main.o(.constdata) for image_data_Font_0x72
    main.o(.constdata) refers to main.o(.constdata) for image_data_Font_0x73
    main.o(.constdata) refers to main.o(.constdata) for image_data_Font_0x74
    main.o(.constdata) refers to main.o(.constdata) for image_data_Font_0x75
    main.o(.constdata) refers to main.o(.constdata) for image_data_Font_0x76
    main.o(.constdata) refers to main.o(.constdata) for image_data_Font_0x77
    main.o(.constdata) refers to main.o(.constdata) for image_data_Font_0x78
    main.o(.constdata) refers to main.o(.constdata) for image_data_Font_0x79
    main.o(.constdata) refers to main.o(.constdata) for image_data_Font_0x7a
    main.o(.constdata) refers to main.o(.constdata) for image_data_Font_0x7b
    main.o(.constdata) refers to main.o(.constdata) for image_data_Font_0x7c
    main.o(.constdata) refers to main.o(.constdata) for image_data_Font_0x7d
    main.o(.constdata) refers to main.o(.constdata) for image_data_Font_0x7e
    main.o(.constdata) refers to main.o(.constdata) for Font_0x20
    main.o(.constdata) refers to main.o(.constdata) for Font_0x21
    main.o(.constdata) refers to main.o(.constdata) for Font_0x22
    main.o(.constdata) refers to main.o(.constdata) for Font_0x23
    main.o(.constdata) refers to main.o(.constdata) for Font_0x24
    main.o(.constdata) refers to main.o(.constdata) for Font_0x25
    main.o(.constdata) refers to main.o(.constdata) for Font_0x26
    main.o(.constdata) refers to main.o(.constdata) for Font_0x27
    main.o(.constdata) refers to main.o(.constdata) for Font_0x28
    main.o(.constdata) refers to main.o(.constdata) for Font_0x29
    main.o(.constdata) refers to main.o(.constdata) for Font_0x2a
    main.o(.constdata) refers to main.o(.constdata) for Font_0x2b
    main.o(.constdata) refers to main.o(.constdata) for Font_0x2c
    main.o(.constdata) refers to main.o(.constdata) for Font_0x2d
    main.o(.constdata) refers to main.o(.constdata) for Font_0x2e
    main.o(.constdata) refers to main.o(.constdata) for Font_0x2f
    main.o(.constdata) refers to main.o(.constdata) for Font_0x30
    main.o(.constdata) refers to main.o(.constdata) for Font_0x31
    main.o(.constdata) refers to main.o(.constdata) for Font_0x32
    main.o(.constdata) refers to main.o(.constdata) for Font_0x33
    main.o(.constdata) refers to main.o(.constdata) for Font_0x34
    main.o(.constdata) refers to main.o(.constdata) for Font_0x35
    main.o(.constdata) refers to main.o(.constdata) for Font_0x36
    main.o(.constdata) refers to main.o(.constdata) for Font_0x37
    main.o(.constdata) refers to main.o(.constdata) for Font_0x38
    main.o(.constdata) refers to main.o(.constdata) for Font_0x39
    main.o(.constdata) refers to main.o(.constdata) for Font_0x3a
    main.o(.constdata) refers to main.o(.constdata) for Font_0x3b
    main.o(.constdata) refers to main.o(.constdata) for Font_0x3c
    main.o(.constdata) refers to main.o(.constdata) for Font_0x3d
    main.o(.constdata) refers to main.o(.constdata) for Font_0x3e
    main.o(.constdata) refers to main.o(.constdata) for Font_0x3f
    main.o(.constdata) refers to main.o(.constdata) for Font_0x40
    main.o(.constdata) refers to main.o(.constdata) for Font_0x41
    main.o(.constdata) refers to main.o(.constdata) for Font_0x42
    main.o(.constdata) refers to main.o(.constdata) for Font_0x43
    main.o(.constdata) refers to main.o(.constdata) for Font_0x44
    main.o(.constdata) refers to main.o(.constdata) for Font_0x45
    main.o(.constdata) refers to main.o(.constdata) for Font_0x46
    main.o(.constdata) refers to main.o(.constdata) for Font_0x47
    main.o(.constdata) refers to main.o(.constdata) for Font_0x48
    main.o(.constdata) refers to main.o(.constdata) for Font_0x49
    main.o(.constdata) refers to main.o(.constdata) for Font_0x4a
    main.o(.constdata) refers to main.o(.constdata) for Font_0x4b
    main.o(.constdata) refers to main.o(.constdata) for Font_0x4c
    main.o(.constdata) refers to main.o(.constdata) for Font_0x4d
    main.o(.constdata) refers to main.o(.constdata) for Font_0x4e
    main.o(.constdata) refers to main.o(.constdata) for Font_0x4f
    main.o(.constdata) refers to main.o(.constdata) for Font_0x50
    main.o(.constdata) refers to main.o(.constdata) for Font_0x51
    main.o(.constdata) refers to main.o(.constdata) for Font_0x52
    main.o(.constdata) refers to main.o(.constdata) for Font_0x53
    main.o(.constdata) refers to main.o(.constdata) for Font_0x54
    main.o(.constdata) refers to main.o(.constdata) for Font_0x55
    main.o(.constdata) refers to main.o(.constdata) for Font_0x56
    main.o(.constdata) refers to main.o(.constdata) for Font_0x57
    main.o(.constdata) refers to main.o(.constdata) for Font_0x58
    main.o(.constdata) refers to main.o(.constdata) for Font_0x59
    main.o(.constdata) refers to main.o(.constdata) for Font_0x5a
    main.o(.constdata) refers to main.o(.constdata) for Font_0x5b
    main.o(.constdata) refers to main.o(.constdata) for Font_0x5c
    main.o(.constdata) refers to main.o(.constdata) for Font_0x5d
    main.o(.constdata) refers to main.o(.constdata) for Font_0x5e
    main.o(.constdata) refers to main.o(.constdata) for Font_0x5f
    main.o(.constdata) refers to main.o(.constdata) for Font_0x60
    main.o(.constdata) refers to main.o(.constdata) for Font_0x61
    main.o(.constdata) refers to main.o(.constdata) for Font_0x62
    main.o(.constdata) refers to main.o(.constdata) for Font_0x63
    main.o(.constdata) refers to main.o(.constdata) for Font_0x64
    main.o(.constdata) refers to main.o(.constdata) for Font_0x65
    main.o(.constdata) refers to main.o(.constdata) for Font_0x66
    main.o(.constdata) refers to main.o(.constdata) for Font_0x67
    main.o(.constdata) refers to main.o(.constdata) for Font_0x68
    main.o(.constdata) refers to main.o(.constdata) for Font_0x69
    main.o(.constdata) refers to main.o(.constdata) for Font_0x6a
    main.o(.constdata) refers to main.o(.constdata) for Font_0x6b
    main.o(.constdata) refers to main.o(.constdata) for Font_0x6c
    main.o(.constdata) refers to main.o(.constdata) for Font_0x6d
    main.o(.constdata) refers to main.o(.constdata) for Font_0x6e
    main.o(.constdata) refers to main.o(.constdata) for Font_0x6f
    main.o(.constdata) refers to main.o(.constdata) for Font_0x70
    main.o(.constdata) refers to main.o(.constdata) for Font_0x71
    main.o(.constdata) refers to main.o(.constdata) for Font_0x72
    main.o(.constdata) refers to main.o(.constdata) for Font_0x73
    main.o(.constdata) refers to main.o(.constdata) for Font_0x74
    main.o(.constdata) refers to main.o(.constdata) for Font_0x75
    main.o(.constdata) refers to main.o(.constdata) for Font_0x76
    main.o(.constdata) refers to main.o(.constdata) for Font_0x77
    main.o(.constdata) refers to main.o(.constdata) for Font_0x78
    main.o(.constdata) refers to main.o(.constdata) for Font_0x79
    main.o(.constdata) refers to main.o(.constdata) for Font_0x7a
    main.o(.constdata) refers to main.o(.constdata) for Font_0x7b
    main.o(.constdata) refers to main.o(.constdata) for Font_0x7c
    main.o(.constdata) refers to main.o(.constdata) for Font_0x7d
    main.o(.constdata) refers to main.o(.constdata) for Font_0x7e
    main.o(.init_array) refers to main.o(.text) for __sti___8_main_cpp_c
    main.o(.init_array) refers to init_aeabi.o(.text) for __cpp_initialize__aeabi_
    stm32f4xx_hal.o(.text) refers to stm32f4xx_hal_rcc.o(.text) for HAL_RCC_GetHCLKFreq
    stm32f4xx_hal.o(.text) refers to stm32f4xx_hal_cortex.o(.text) for HAL_SYSTICK_Config
    stm32f4xx_hal.o(.text) refers to stm32f4xx_hal.o(.data) for .data
    stm32f4xx_hal.o(.ARM.exidx) refers to stm32f4xx_hal.o(.text) for .text
    stm32f4xx_hal_cortex.o(.ARM.exidx) refers to stm32f4xx_hal_cortex.o(.text) for .text
    stm32f4xx_hal_dma.o(.text) refers to stm32f4xx_hal.o(.text) for HAL_GetTick
    stm32f4xx_hal_dma.o(.ARM.exidx) refers to stm32f4xx_hal_dma.o(.text) for .text
    stm32f4xx_hal_dma_ex.o(.ARM.exidx) refers to stm32f4xx_hal_dma_ex.o(.text) for .text
    stm32f4xx_hal_flash.o(.text) refers to stm32f4xx_hal.o(.text) for HAL_GetTick
    stm32f4xx_hal_flash.o(.text) refers to stm32f4xx_hal_flash_ex.o(.text) for FLASH_Erase_Sector
    stm32f4xx_hal_flash.o(.text) refers to stm32f4xx_hal_flash.o(.bss) for .bss
    stm32f4xx_hal_flash.o(.ARM.exidx) refers to stm32f4xx_hal_flash.o(.text) for .text
    stm32f4xx_hal_flash_ex.o(.text) refers to stm32f4xx_hal_flash.o(.text) for FLASH_WaitForLastOperation
    stm32f4xx_hal_flash_ex.o(.text) refers to stm32f4xx_hal_flash.o(.bss) for pFlash
    stm32f4xx_hal_flash_ex.o(.ARM.exidx) refers to stm32f4xx_hal_flash_ex.o(.text) for .text
    stm32f4xx_hal_gpio.o(.ARM.exidx) refers to stm32f4xx_hal_gpio.o(.text) for .text
    stm32f4xx_hal_spi.o(.text) refers to stm32f4xx_hal.o(.text) for HAL_GetTick
    stm32f4xx_hal_spi.o(.text) refers to stm32f4xx_hal_dma.o(.text) for HAL_DMA_Start_IT
    stm32f4xx_hal_spi.o(.ARM.exidx) refers to stm32f4xx_hal_spi.o(.text) for .text
    stm32f4xx_hal_sram.o(.text) refers to stm32f4xx_ll_fsmc.o(.text) for FSMC_NORSRAM_Init
    stm32f4xx_hal_sram.o(.text) refers to stm32f4xx_hal_dma.o(.text) for HAL_DMA_Start_IT
    stm32f4xx_hal_sram.o(.ARM.exidx) refers to stm32f4xx_hal_sram.o(.text) for .text
    stm32f4xx_hal_tim.o(.text) refers to stm32f4xx_hal_dma.o(.text) for HAL_DMA_Start_IT
    stm32f4xx_hal_tim.o(.text) refers to stm32f4xx_hal_tim_ex.o(.text) for HAL_TIMEx_BreakCallback
    stm32f4xx_hal_tim.o(.ARM.exidx) refers to stm32f4xx_hal_tim.o(.text) for .text
    stm32f4xx_hal_tim_ex.o(.text) refers to stm32f4xx_hal_tim.o(.text) for TIM_Base_SetConfig
    stm32f4xx_hal_tim_ex.o(.text) refers to stm32f4xx_hal_dma.o(.text) for HAL_DMA_Start_IT
    stm32f4xx_hal_tim_ex.o(.ARM.exidx) refers to stm32f4xx_hal_tim_ex.o(.text) for .text
    stm32f4xx_ll_fsmc.o(.text) refers to stm32f4xx_hal.o(.text) for HAL_GetTick
    stm32f4xx_ll_fsmc.o(.ARM.exidx) refers to stm32f4xx_ll_fsmc.o(.text) for .text
    stm32f4xx_hal_rcc.o(.text) refers to stm32f4xx_hal.o(.text) for HAL_GetTick
    stm32f4xx_hal_rcc.o(.text) refers to stm32f4xx_hal_gpio.o(.text) for HAL_GPIO_Init
    stm32f4xx_hal_rcc.o(.text) refers to stm32f4xx_hal_rcc.o(.constdata) for .constdata
    stm32f4xx_hal_rcc.o(.text) refers to system_stm32f4xx.o(.data) for SystemCoreClock
    stm32f4xx_hal_rcc.o(.ARM.exidx) refers to stm32f4xx_hal_rcc.o(.text) for .text
    stm32f4xx_hal_rcc_ex.o(.text) refers to stm32f4xx_hal.o(.text) for HAL_GetTick
    stm32f4xx_hal_rcc_ex.o(.ARM.exidx) refers to stm32f4xx_hal_rcc_ex.o(.text) for .text
    init.o(.text) refers to stm32f4xx_hal_rcc.o(.text) for HAL_RCC_OscConfig
    init.o(.text) refers to stm32f4xx_hal.o(.text) for HAL_GetREVID
    init.o(.text) refers to stm32f4xx_hal_sram.o(.text) for HAL_SRAM_Init
    init.o(.text) refers to stm32f4xx_hal_spi.o(.text) for HAL_SPI_Init
    init.o(.text) refers to stm32f4xx_hal_dma.o(.text) for HAL_DMA_Init
    init.o(.text) refers to stm32f4xx_hal_tim.o(.text) for HAL_TIM_Base_Init
    init.o(.text) refers to stm32f4xx_hal_cortex.o(.text) for HAL_NVIC_SetPriority
    init.o(.text) refers to gpio_ex.o(.text) for DEV_Gpio_Init(GPIO_TypeDef*, int, unsigned, unsigned)
    init.o(.text) refers to init.o(.bss) for .bss
    init.o(.text) refers to system_stm32f4xx.o(.data) for SystemCoreClock
    init.o(.ARM.exidx) refers to init.o(.text) for .text
    screen.o(.text) refers to locker.o(.text) for Locker::Locker()
    screen.o(.text) refers to affine_tf.o(.text) for Affine_Body::Affine_Body()
    screen.o(.text) refers to screen.o(t._ZN10Fill_ClassI6ScreenEC1Ev) for Fill_Class<Screen>::Fill_Class()
    screen.o(.text) refers to screen.o(t._ZN12Bitmap_ClassI6ScreenEC1Ev) for Bitmap_Class<Screen>::Bitmap_Class()
    screen.o(.text) refers to screen.o(t._ZN12Circle_ClassI6ScreenEC1Ev) for Circle_Class<Screen>::Circle_Class()
    screen.o(.text) refers to screen.o(t._ZN10Line_ClassI6ScreenEC1Ev) for Line_Class<Screen>::Line_Class()
    screen.o(.text) refers to screen.o(t._ZN15Rectangle_ClassI6ScreenEC1Ev) for Rectangle_Class<Screen>::Rectangle_Class()
    screen.o(.text) refers to screen.o(t._ZN11Print_ClassI6ScreenEC1Ev) for Print_Class<Screen>::Print_Class()
    screen.o(.text) refers to geometry.o(.text) for Coordinates::Dispose(b2D)
    screen.o(.text) refers to screen.o(t._ZN10Screen_ObjI6ScreenEclERS0_) for Screen_Obj<Screen>::operator ()(Screen&)
    screen.o(.text) refers to main.o(t._ZN12Bitmap_ClassI6ScreenE8SetScaleEff) for Bitmap_Class<Screen>::SetScale(float, float)
    screen.o(.text) refers to screen.o(t._ZN10Line_ClassI6ScreenE4InitEv) for Line_Class<Screen>::Init()
    screen.o(.text) refers to screen.o(t._ZN15Rectangle_ClassI6ScreenE4InitEv) for Rectangle_Class<Screen>::Init()
    screen.o(.text) refers to screen.o(t._ZN11Print_ClassI6ScreenE4InitEv) for Print_Class<Screen>::Init()
    screen.o(.text) refers to screen.o(t._ZN7Frame2DIsE7GetBuffEv) for Frame2D<short>::GetBuff()
    screen.o(.text) refers to screen.o(t._ZN7Frame2DIsE4GetHEv) for Frame2D<short>::GetH()
    screen.o(.text) refers to main.o(t._ZN10Fill_ClassI6ScreenE4FillEt) for Fill_Class<Screen>::Fill(unsigned short)
    screen.o(.text) refers to screen.o(t._ZN9AllocatorI6ScreenE3NewI8tTextureEEPT_j) for T1* Allocator<Screen>::New<tTexture>(unsigned)
    screen.o(.text) refers to screen.o(t._ZN9AllocatorI6ScreenE6DeleteI8tTextureEEiPT_) for int Allocator<Screen>::Delete<tTexture>(T1*)
    screen.o(.text) refers to screen.o(t._ZN10List_OrderI6ScreenhEC1Ev) for List_Order<Screen, unsigned char>::List_Order()
    screen.o(.text) refers to screen.o(t._ZN9AllocatorI6ScreenE3NewEv) for Allocator<Screen>::New()
    screen.o(.text) refers to screen.o(t._ZN10List_OrderI6ScreenhEplEPS0_) for List_Order<Screen, unsigned char>::operator +(Screen*)
    screen.o(.ARM.exidx) refers to screen.o(.text) for .text
    terminal_interface.o(.text) refers to dtostr.o(.text) for STR::itoa(int, char*, unsigned)
    terminal_interface.o(.text) refers to strlen.o(.text) for strlen
    terminal_interface.o(.ARM.exidx) refers to terminal_interface.o(.text) for .text
    gpio_ex.o(.text) refers to stm32f4xx_hal_gpio.o(.text) for HAL_GPIO_Init
    gpio_ex.o(.text) refers to gpio_ex.o(.bss) for .bss
    gpio_ex.o(.ARM.exidx) refers to gpio_ex.o(.text) for .text
    tftili9486.o(.text) refers to gpio_ex.o(.text) for SpiSoftTypeDef::Send_9bit_Data(bool, unsigned char)
    tftili9486.o(.text) refers to screen.o(t._ZN7Frame2DIsE4GetHEv) for Frame2D<short>::GetH()
    tftili9486.o(.text) refers to tftili9486.o(t._ZN7Frame2DIsE7GetRectEv) for Frame2D<short>::GetRect()
    tftili9486.o(.text) refers to screen.o(t._ZN7Frame2DIsE7GetBuffEv) for Frame2D<short>::GetBuff()
    tftili9486.o(.text) refers to stm32f4xx_hal.o(.text) for HAL_Delay
    tftili9486.o(.text) refers to device.o(.constdata__ZTV12LcdDriverDef) for vtable for LcdDriverDef
    tftili9486.o(.ARM.exidx) refers to tftili9486.o(.text) for .text
    device.o(.text) refers to memory_alloc.o(.text) for MemoryAllocator::New(unsigned)
    device.o(.text) refers to locker.o(.text) for Locker::Locker()
    device.o(.text) refers to terminal_interface.o(.text) for __TTY::__TTY()
    device.o(.text) refers to device.o(t._ZN13List_IteratorI11MemoryChunkEC1Ev) for List_Iterator<MemoryChunk>::List_Iterator()
    device.o(.text) refers to tftili9486.o(.text) for LcdDriverDef::LcdDriverDef(GPIO_TypeDef*, SpiSoftTypeDef&, unsigned)
    device.o(.text) refers to device.o(t._ZN14Frame2DManagerIsEC1Ev) for Frame2DManager<short>::Frame2DManager()
    device.o(.text) refers to screen.o(.text) for ScreenManager::ScreenManager()
    device.o(.text) refers to aeabi_atexit.o(i.__aeabi_atexit) for __aeabi_atexit
    device.o(.text) refers to device.o(.bss) for .bss
    device.o(.text) refers to device.o(.data) for .data
    device.o(.text) refers to device.o(i._ZN13ScreenManagerD1Ev) for ScreenManager::~ScreenManager()
    device.o(.ARM.exidx) refers to device.o(.text) for .text
    device.o(.init_array) refers to device.o(.text) for __sti___10_device_cpp_c6d18d2d
    device.o(.init_array) refers to init_aeabi.o(.text) for __cpp_initialize__aeabi_
    stm32f4xx_it.o(.text) refers to stm32f4xx_hal.o(.text) for HAL_IncTick
    stm32f4xx_it.o(.text) refers to stm32f4xx_hal_tim.o(.text) for HAL_TIM_IRQHandler
    stm32f4xx_it.o(.text) refers to init.o(.bss) for TimHandle
    stm32f4xx_it.o(.ARM.exidx) refers to stm32f4xx_it.o(.text) for .text
    geometry.o(.ARM.exidx) refers to geometry.o(.text) for .text
    locker.o(.ARM.exidx) refers to locker.o(.text) for .text
    affine_tf.o(.ARM.exidx) refers to affine_tf.o(.text) for .text
    dtostr.o(.text) refers to strlen.o(.text) for strlen
    dtostr.o(.ARM.exidx) refers to dtostr.o(.text) for .text
    physic.o(.text) refers to sinf.o(i.__hardfp_sinf) for __hardfp_sinf
    physic.o(.text) refers to cosf.o(i.__hardfp_cosf) for __hardfp_cosf
    physic.o(.text) refers to geometry.o(.text) for gTest::TestLineIntersect(float, float, float, float, float, float, float, float)
    physic.o(.text) refers to f2d.o(x$fpl$f2d) for __aeabi_f2d
    physic.o(.text) refers to atan.o(i.__hardfp_atan) for __hardfp_atan
    physic.o(.text) refers to d2f.o(x$fpl$d2f) for __aeabi_d2f
    physic.o(.text) refers to physic.o(t._ZN13List_IteratorIN6Physic6Ball2DEEC1Ev) for List_Iterator<Physic::Ball2D>::List_Iterator()
    physic.o(.text) refers to physic.o(t._ZN13List_IteratorIN6Physic6Ball2DEE7ContainEv) for List_Iterator<Physic::Ball2D>::Contain()
    physic.o(.text) refers to physic.o(t._ZN9AllocatorIN6Physic6Ball2DEE3NewI6lArrayIS1_EEEPT_v) for T1* Allocator<Physic::Ball2D>::New<lArray<Physic::Ball2D>>()
    physic.o(.text) refers to physic.o(t._ZN6lArrayIN6Physic6Ball2DEEclEj) for lArray<Physic::Ball2D>::operator ()(unsigned)
    physic.o(.text) refers to physic.o(t._ZN13List_IteratorIN6Physic6Ball2DEE8GetFirstEv) for List_Iterator<Physic::Ball2D>::GetFirst()
    physic.o(.text) refers to physic.o(t._ZN13List_IteratorIN6Physic6Ball2DEE7GetNextEPS1_) for List_Iterator<Physic::Ball2D>::GetNext(Physic::Ball2D*)
    physic.o(.text) refers to physic.o(t._ZN13List_IteratorIN6Physic6Ball2DEE3GetEj) for List_Iterator<Physic::Ball2D>::Get(unsigned)
    physic.o(.text) refers to physic.o(t._ZN13List_IteratorIN6Physic6Ball2DEEmiEPS1_) for List_Iterator<Physic::Ball2D>::operator -(Physic::Ball2D*)
    physic.o(.text) refers to physic.o(t._ZN6lArrayIN6Physic6Ball2DEE3AddEPS1_j) for lArray<Physic::Ball2D>::Add(Physic::Ball2D*, unsigned)
    physic.o(.text) refers to physic.o(t._ZN13List_IteratorIN6Physic6Ball2DEEplEPS1_) for List_Iterator<Physic::Ball2D>::operator +(Physic::Ball2D*)
    physic.o(.text) refers to physic.o(t._ZN13List_IteratorIN6Physic6Ball2DEE5ArrayI6lArrayIS1_EEERS2_PT_j) for List_Iterator<Physic::Ball2D>& List_Iterator<Physic::Ball2D>::Array<lArray<Physic::Ball2D>>(T1*, unsigned)
    physic.o(.text) refers to physic.o(t._ZN6lArrayIN6Physic6Ball2DEED1Ev) for lArray<Physic::Ball2D>::~lArray()
    physic.o(.text) refers to physic.o(t._ZN9AllocatorIN6Physic6Ball2DEE3NewEv) for Allocator<Physic::Ball2D>::New()
    physic.o(.text) refers to aeabi_vec_ctor_nocookie_nodtor.o(i.__aeabi_vec_ctor_nocookie_nodtor) for __aeabi_vec_ctor_nocookie_nodtor
    physic.o(.text) refers to aeabi_vec_dtor_noexceptions.o(.text) for __aeabi_vec_dtor
    physic.o(.text) refers to physic.o(t._ZN7storage3MapILi2EN6Physic8DustPartEfE5BeginEv) for storage::Map<(int)2, Physic::DustPart, float>::Begin()
    physic.o(.text) refers to daddsub_clz.o(x$fpl$dadd) for __aeabi_dadd
    physic.o(.text) refers to rand.o(.emb_text) for rand
    physic.o(.text) refers to main.o(.constdata__ZTVN6Physic11Ball2DGroupE) for vtable for Physic::Ball2DGroup
    physic.o(.text) refers to physic.o(t._ZN7storage3MapILi2EN6Physic8DustPartEfEC1Ev) for storage::Map<(int)2, Physic::DustPart, float>::Map()
    physic.o(.text) refers to physic.o(i._ZN7storage3MapILi2EN6Physic8DustPartEfED1Ev) for storage::Map<(int)2, Physic::DustPart, float>::~Map()
    physic.o(.text) refers to dmul.o(x$fpl$dmul) for __aeabi_dmul
    physic.o(.text) refers to physic.o(t._ZN9AllocatorIN6Physic8DustPartEE3NewEv) for Allocator<Physic::DustPart>::New()
    physic.o(.text) refers to physic.o(t._ZN7storage3MapILi2EN6Physic8DustPartEfEplEPS2_) for storage::Map<(int)2, Physic::DustPart, float>::operator +(Physic::DustPart*)
    physic.o(.text) refers to main.o(.text) for Physic::StarDust::Draw(float, float, unsigned)
    physic.o(.text) refers to rt_memcpy_w.o(.text) for __aeabi_memcpy4
    physic.o(.text) refers to physic.o(.constdata) for .constdata
    physic.o(.ARM.exidx) refers to physic.o(.text) for .text
    memory_alloc.o(.text) refers to locker.o(.text) for Locker::Test()
    memory_alloc.o(.text) refers to memory_alloc.o(t._ZN13List_IteratorI11MemoryChunkE8GetFirstEv) for List_Iterator<MemoryChunk>::GetFirst()
    memory_alloc.o(.text) refers to memory_alloc.o(t._ZN13List_IteratorI11MemoryChunkE6RemoveEPS0_) for List_Iterator<MemoryChunk>::Remove(MemoryChunk*)
    memory_alloc.o(.text) refers to memory_alloc.o(t._ZN13List_IteratorI11MemoryChunkEplEPS0_) for List_Iterator<MemoryChunk>::operator +(MemoryChunk*)
    memory_alloc.o(.text) refers to rt_errno_addr_intlibspace.o(.text) for __aeabi_errno_addr
    memory_alloc.o(.text) refers to terminal_interface.o(.text) for __TTY::operator ()(void*, unsigned)
    memory_alloc.o(.text) refers to memory_alloc.o(t._ZN13List_IteratorI11MemoryChunkE7ContainEv) for List_Iterator<MemoryChunk>::Contain()
    memory_alloc.o(.text) refers to memory_alloc.o(t._ZN13List_IteratorI11MemoryChunkE7GetLastEv) for List_Iterator<MemoryChunk>::GetLast()
    memory_alloc.o(.text) refers to memory_alloc.o(t._ZN13List_IteratorI11MemoryChunkEmiEPS0_) for List_Iterator<MemoryChunk>::operator -(MemoryChunk*)
    memory_alloc.o(.text) refers to memory_alloc.o(t._ZN13List_IteratorI11MemoryChunkE3GetEj) for List_Iterator<MemoryChunk>::Get(unsigned)
    memory_alloc.o(.ARM.exidx) refers to memory_alloc.o(.text) for .text
    startup_stm32f417xx.o(STACK) refers (Special) to heapauxi.o(.text) for __use_two_region_memory
    startup_stm32f417xx.o(HEAP) refers (Special) to heapauxi.o(.text) for __use_two_region_memory
    startup_stm32f417xx.o(RESET) refers (Special) to heapauxi.o(.text) for __use_two_region_memory
    startup_stm32f417xx.o(RESET) refers to startup_stm32f417xx.o(STACK) for __initial_sp
    startup_stm32f417xx.o(RESET) refers to startup_stm32f417xx.o(.text) for Reset_Handler
    startup_stm32f417xx.o(RESET) refers to stm32f4xx_it.o(.text) for NMI_Handler
    startup_stm32f417xx.o(.text) refers (Special) to heapauxi.o(.text) for __use_two_region_memory
    startup_stm32f417xx.o(.text) refers to system_stm32f4xx.o(.text) for SystemInit
    startup_stm32f417xx.o(.text) refers to __main.o(!!!main) for __main
    startup_stm32f417xx.o(.text) refers to startup_stm32f417xx.o(HEAP) for Heap_Mem
    startup_stm32f417xx.o(.text) refers to startup_stm32f417xx.o(STACK) for Stack_Mem
    system_stm32f4xx.o(.text) refers to system_stm32f4xx.o(.data) for .data
    system_stm32f4xx.o(.ARM.exidx) refers to system_stm32f4xx.o(.text) for .text
    rt_errno_addr.o(.text) refers to rt_errno_addr.o(.bss) for __aeabi_errno_addr_data
    rt_errno_addr_intlibspace.o(.text) refers to libspace.o(.bss) for __libspace_start
    rand.o(.emb_text) refers (Special) to libinit2.o(.ARM.Collect$$libinit$$0000000D) for __rt_lib_init_rand_2
    rand.o(.emb_text) refers to rand.o(.text) for _rand_init
    rand.o(.emb_text) refers to rand.o(.bss) for _random_number_data
    rand.o(.text) refers (Special) to libinit2.o(.ARM.Collect$$libinit$$0000000D) for __rt_lib_init_rand_2
    rand.o(.text) refers to rand.o(.bss) for .bss
    rand.o(.bss) refers (Special) to libinit2.o(.ARM.Collect$$libinit$$0000000D) for __rt_lib_init_rand_2
    atexit_cpp.o(.text) refers to cxa_atexit.o(i.__cxa_atexit) for __cxa_atexit
    atexit_cpp.o(.ARM.exidx) refers to atexit_cpp.o(.text) for .text
    __main.o(!!!main) refers to __rtentry.o(.ARM.Collect$$rtentry$$00000000) for __rt_entry
    init_aeabi.o(.emb_text) refers (Special) to libinit2.o(.ARM.Collect$$libinit$$00000031) for __rt_lib_init_cpp_2
    init_aeabi.o(.init_array) refers (Special) to libinit2.o(.ARM.Collect$$libinit$$00000031) for __rt_lib_init_cpp_2
    init_aeabi.o(.init_array) refers to init_aeabi.o(.text) for __cpp_initialize__aeabi_
    init_aeabi.o(.dummy_text) refers (Special) to libinit2.o(.ARM.Collect$$libinit$$00000031) for __rt_lib_init_cpp_2
    init_aeabi.o(.text) refers (Special) to libinit2.o(.ARM.Collect$$libinit$$00000031) for __rt_lib_init_cpp_2
    init_aeabi.o(.ARM.exidx) refers (Special) to libinit2.o(.ARM.Collect$$libinit$$00000031) for __rt_lib_init_cpp_2
    init_aeabi.o(.ARM.exidx) refers to init_aeabi.o(.text) for .text
    lib_rtti_impl.o(i._ZN10__cxxabiv116__enum_type_infoD0Ev) refers to lib_rtti_impl.o(i._ZN10__cxxabiv116__enum_type_infoD1Ev) for __cxxabiv1::__enum_type_info::~__enum_type_info()
    lib_rtti_impl.o(i._ZN10__cxxabiv117__array_type_infoD0Ev) refers to lib_rtti_impl.o(i._ZN10__cxxabiv117__array_type_infoD1Ev) for __cxxabiv1::__array_type_info::~__array_type_info()
    lib_rtti_impl.o(i._ZN10__cxxabiv117__class_type_infoD0Ev) refers to lib_rtti_impl.o(i._ZN10__cxxabiv117__class_type_infoD1Ev) for __cxxabiv1::__class_type_info::~__class_type_info()
    lib_rtti_impl.o(i._ZN10__cxxabiv117__pbase_type_infoD0Ev) refers to lib_rtti_impl.o(i._ZN10__cxxabiv117__pbase_type_infoD1Ev) for __cxxabiv1::__pbase_type_info::~__pbase_type_info()
    lib_rtti_impl.o(i._ZN10__cxxabiv119__pointer_type_infoD0Ev) refers to lib_rtti_impl.o(i._ZN10__cxxabiv119__pointer_type_infoD1Ev) for __cxxabiv1::__pointer_type_info::~__pointer_type_info()
    lib_rtti_impl.o(i._ZN10__cxxabiv119__pointer_type_infoD1Ev) refers to lib_rtti_impl.o(i._ZN10__cxxabiv117__pbase_type_infoD1Ev) for __cxxabiv1::__pbase_type_info::~__pbase_type_info()
    lib_rtti_impl.o(i._ZN10__cxxabiv120__function_type_infoD0Ev) refers to lib_rtti_impl.o(i._ZN10__cxxabiv120__function_type_infoD1Ev) for __cxxabiv1::__function_type_info::~__function_type_info()
    lib_rtti_impl.o(i._ZN10__cxxabiv120__si_class_type_infoD0Ev) refers to lib_rtti_impl.o(i._ZN10__cxxabiv120__si_class_type_infoD1Ev) for __cxxabiv1::__si_class_type_info::~__si_class_type_info()
    lib_rtti_impl.o(i._ZN10__cxxabiv120__si_class_type_infoD1Ev) refers to lib_rtti_impl.o(i._ZN10__cxxabiv117__class_type_infoD1Ev) for __cxxabiv1::__class_type_info::~__class_type_info()
    lib_rtti_impl.o(i._ZN10__cxxabiv121__vmi_class_type_infoD0Ev) refers to lib_rtti_impl.o(i._ZN10__cxxabiv121__vmi_class_type_infoD1Ev) for __cxxabiv1::__vmi_class_type_info::~__vmi_class_type_info()
    lib_rtti_impl.o(i._ZN10__cxxabiv121__vmi_class_type_infoD1Ev) refers to lib_rtti_impl.o(i._ZN10__cxxabiv117__class_type_infoD1Ev) for __cxxabiv1::__class_type_info::~__class_type_info()
    lib_rtti_impl.o(i._ZN10__cxxabiv123__fundamental_type_infoD0Ev) refers to lib_rtti_impl.o(i._ZN10__cxxabiv123__fundamental_type_infoD1Ev) for __cxxabiv1::__fundamental_type_info::~__fundamental_type_info()
    lib_rtti_impl.o(i._ZN10__cxxabiv129__pointer_to_member_type_infoD0Ev) refers to lib_rtti_impl.o(i._ZN10__cxxabiv129__pointer_to_member_type_infoD1Ev) for __cxxabiv1::__pointer_to_member_type_info::~__pointer_to_member_type_info()
    lib_rtti_impl.o(i._ZN10__cxxabiv129__pointer_to_member_type_infoD1Ev) refers to lib_rtti_impl.o(i._ZN10__cxxabiv117__pbase_type_infoD1Ev) for __cxxabiv1::__pbase_type_info::~__pbase_type_info()
    lib_rtti_impl.o(.ARM.exidx) refers to lib_rtti_impl.o(i._ZN10__cxxabiv123__fundamental_type_infoD1Ev) for i._ZN10__cxxabiv123__fundamental_type_infoD1Ev
    lib_rtti_impl.o(.ARM.exidx) refers to lib_rtti_impl.o(i._ZN10__cxxabiv123__fundamental_type_infoD0Ev) for i._ZN10__cxxabiv123__fundamental_type_infoD0Ev
    lib_rtti_impl.o(.ARM.exidx) refers to lib_rtti_impl.o(i._ZN10__cxxabiv117__array_type_infoD1Ev) for i._ZN10__cxxabiv117__array_type_infoD1Ev
    lib_rtti_impl.o(.ARM.exidx) refers to lib_rtti_impl.o(i._ZN10__cxxabiv117__array_type_infoD0Ev) for i._ZN10__cxxabiv117__array_type_infoD0Ev
    lib_rtti_impl.o(.ARM.exidx) refers to lib_rtti_impl.o(i._ZN10__cxxabiv120__function_type_infoD1Ev) for i._ZN10__cxxabiv120__function_type_infoD1Ev
    lib_rtti_impl.o(.ARM.exidx) refers to lib_rtti_impl.o(i._ZN10__cxxabiv120__function_type_infoD0Ev) for i._ZN10__cxxabiv120__function_type_infoD0Ev
    lib_rtti_impl.o(.ARM.exidx) refers to lib_rtti_impl.o(i._ZN10__cxxabiv116__enum_type_infoD1Ev) for i._ZN10__cxxabiv116__enum_type_infoD1Ev
    lib_rtti_impl.o(.ARM.exidx) refers to lib_rtti_impl.o(i._ZN10__cxxabiv116__enum_type_infoD0Ev) for i._ZN10__cxxabiv116__enum_type_infoD0Ev
    lib_rtti_impl.o(.ARM.exidx) refers to lib_rtti_impl.o(i._ZN10__cxxabiv117__class_type_infoD1Ev) for i._ZN10__cxxabiv117__class_type_infoD1Ev
    lib_rtti_impl.o(.ARM.exidx) refers to lib_rtti_impl.o(i._ZN10__cxxabiv117__class_type_infoD0Ev) for i._ZN10__cxxabiv117__class_type_infoD0Ev
    lib_rtti_impl.o(.ARM.exidx) refers to lib_rtti_impl.o(i._ZN10__cxxabiv120__si_class_type_infoD1Ev) for i._ZN10__cxxabiv120__si_class_type_infoD1Ev
    lib_rtti_impl.o(.ARM.exidx) refers to lib_rtti_impl.o(i._ZN10__cxxabiv120__si_class_type_infoD0Ev) for i._ZN10__cxxabiv120__si_class_type_infoD0Ev
    lib_rtti_impl.o(.ARM.exidx) refers to lib_rtti_impl.o(i._ZN10__cxxabiv121__vmi_class_type_infoD1Ev) for i._ZN10__cxxabiv121__vmi_class_type_infoD1Ev
    lib_rtti_impl.o(.ARM.exidx) refers to lib_rtti_impl.o(i._ZN10__cxxabiv121__vmi_class_type_infoD0Ev) for i._ZN10__cxxabiv121__vmi_class_type_infoD0Ev
    lib_rtti_impl.o(.ARM.exidx) refers to lib_rtti_impl.o(i._ZN10__cxxabiv117__pbase_type_infoD1Ev) for i._ZN10__cxxabiv117__pbase_type_infoD1Ev
    lib_rtti_impl.o(.ARM.exidx) refers to lib_rtti_impl.o(i._ZN10__cxxabiv117__pbase_type_infoD0Ev) for i._ZN10__cxxabiv117__pbase_type_infoD0Ev
    lib_rtti_impl.o(.ARM.exidx) refers to lib_rtti_impl.o(i._ZN10__cxxabiv119__pointer_type_infoD1Ev) for i._ZN10__cxxabiv119__pointer_type_infoD1Ev
    lib_rtti_impl.o(.ARM.exidx) refers to lib_rtti_impl.o(i._ZN10__cxxabiv119__pointer_type_infoD0Ev) for i._ZN10__cxxabiv119__pointer_type_infoD0Ev
    lib_rtti_impl.o(.ARM.exidx) refers to lib_rtti_impl.o(i._ZN10__cxxabiv129__pointer_to_member_type_infoD1Ev) for i._ZN10__cxxabiv129__pointer_to_member_type_infoD1Ev
    lib_rtti_impl.o(.ARM.exidx) refers to lib_rtti_impl.o(i._ZN10__cxxabiv129__pointer_to_member_type_infoD0Ev) for i._ZN10__cxxabiv129__pointer_to_member_type_infoD0Ev
    aeabi_atexit.o(i.__aeabi_atexit) refers (Special) to cxa_finalize.o(i.__cxa_finalize) for __cxa_finalize
    aeabi_atexit.o(i.__aeabi_atexit) refers (Special) to libshutdown2.o(.ARM.Collect$$libshutdown$$00000001) for __rt_lib_shutdown_cpp_1
    aeabi_atexit.o(i.__aeabi_atexit) refers to h1_alloc.o(.text) for malloc
    aeabi_atexit.o(i.__aeabi_atexit) refers to rt_ddtor_pointer_addr_intlibspace.o(.text) for __rt_ddtor_pointer_addr
    aeabi_atexit.o(.ARM.exidx) refers (Special) to cxa_finalize.o(i.__cxa_finalize) for __cxa_finalize
    aeabi_atexit.o(.ARM.exidx) refers (Special) to libshutdown2.o(.ARM.Collect$$libshutdown$$00000001) for __rt_lib_shutdown_cpp_1
    aeabi_atexit.o(.ARM.exidx) refers to aeabi_atexit.o(i.__aeabi_atexit) for i.__aeabi_atexit
    aeabi_vec_ctor_nocookie_nodtor.o(.ARM.exidx) refers to aeabi_vec_ctor_nocookie_nodtor.o(i.__aeabi_vec_ctor_nocookie_nodtor) for i.__aeabi_vec_ctor_nocookie_nodtor
    aeabi_vec_ctor_nocookie_nodtor.o(.ARM.exidx) refers to unwind_pr0.o(.text) for __aeabi_unwind_cpp_pr0
    aeabi_vec_dtor_noexceptions.o(.ARM.exidx) refers to aeabi_vec_dtor_noexceptions.o(.text) for .text
    d2f.o(x$fpl$d2f) refers (Special) to usenofp.o(x$fpl$usenofp) for __I$use$fp
    d2f.o(x$fpl$d2f) refers to fretinf.o(x$fpl$fretinf) for __fpl_fretinf
    d2f.o(x$fpl$d2f) refers to dnaninf.o(x$fpl$dnaninf) for __fpl_dnaninf
    daddsub_clz.o(x$fpl$dadd) refers (Special) to usenofp.o(x$fpl$usenofp) for __I$use$fp
    daddsub_clz.o(x$fpl$dadd) refers to daddsub_clz.o(x$fpl$dsub) for _dsub1
    daddsub_clz.o(x$fpl$dadd) refers to dretinf.o(x$fpl$dretinf) for __fpl_dretinf
    daddsub_clz.o(x$fpl$dadd) refers to dnaninf.o(x$fpl$dnaninf) for __fpl_dnaninf
    daddsub_clz.o(x$fpl$drsb) refers (Special) to usenofp.o(x$fpl$usenofp) for __I$use$fp
    daddsub_clz.o(x$fpl$drsb) refers to daddsub_clz.o(x$fpl$dadd) for _dadd1
    daddsub_clz.o(x$fpl$drsb) refers to daddsub_clz.o(x$fpl$dsub) for _dsub1
    daddsub_clz.o(x$fpl$dsub) refers (Special) to usenofp.o(x$fpl$usenofp) for __I$use$fp
    daddsub_clz.o(x$fpl$dsub) refers to daddsub_clz.o(x$fpl$dadd) for _dadd1
    daddsub_clz.o(x$fpl$dsub) refers to dnaninf.o(x$fpl$dnaninf) for __fpl_dnaninf
    dmul.o(x$fpl$dmul) refers (Special) to usenofp.o(x$fpl$usenofp) for __I$use$fp
    dmul.o(x$fpl$dmul) refers to dretinf.o(x$fpl$dretinf) for __fpl_dretinf
    dmul.o(x$fpl$dmul) refers to dnaninf.o(x$fpl$dnaninf) for __fpl_dnaninf
    f2d.o(x$fpl$f2d) refers (Special) to usenofp.o(x$fpl$usenofp) for __I$use$fp
    f2d.o(x$fpl$f2d) refers to fnaninf.o(x$fpl$fnaninf) for __fpl_fnaninf
    f2d.o(x$fpl$f2d) refers to dretinf.o(x$fpl$dretinf) for __fpl_dretinf
    atan.o(i.__hardfp_atan) refers (Special) to usenofp.o(x$fpl$usenofp) for __I$use$fp
    atan.o(i.__hardfp_atan) refers to dunder.o(i.__mathlib_dbl_infnan) for __mathlib_dbl_infnan
    atan.o(i.__hardfp_atan) refers to fpclassify.o(i.__ARM_fpclassify) for __ARM_fpclassify
    atan.o(i.__hardfp_atan) refers to dunder.o(i.__mathlib_dbl_underflow) for __mathlib_dbl_underflow
    atan.o(i.__hardfp_atan) refers to fabs.o(i.fabs) for fabs
    atan.o(i.__hardfp_atan) refers to daddsub_clz.o(x$fpl$dadd) for __aeabi_dadd
    atan.o(i.__hardfp_atan) refers to dmul.o(x$fpl$dmul) for __aeabi_dmul
    atan.o(i.__hardfp_atan) refers to daddsub_clz.o(x$fpl$dsub) for __aeabi_dsub
    atan.o(i.__hardfp_atan) refers to ddiv.o(x$fpl$ddiv) for __aeabi_ddiv
    atan.o(i.__hardfp_atan) refers to poly.o(i.__kernel_poly) for __kernel_poly
    atan.o(i.__hardfp_atan) refers to daddsub_clz.o(x$fpl$drsb) for __aeabi_drsub
    atan.o(i.__hardfp_atan) refers to basic.o(x$fpl$basic) for __aeabi_dneg
    atan.o(i.__hardfp_atan) refers to atan.o(.constdata) for .constdata
    atan.o(i.__softfp_atan) refers (Special) to usenofp.o(x$fpl$usenofp) for __I$use$fp
    atan.o(i.__softfp_atan) refers to atan.o(i.__hardfp_atan) for __hardfp_atan
    atan.o(i.atan) refers (Special) to usenofp.o(x$fpl$usenofp) for __I$use$fp
    atan.o(i.atan) refers to atan.o(i.__hardfp_atan) for __hardfp_atan
    atan.o(.constdata) refers (Special) to usenofp.o(x$fpl$usenofp) for __I$use$fp
    atan_x.o(i.____hardfp_atan$lsc) refers (Special) to usenofp.o(x$fpl$usenofp) for __I$use$fp
    atan_x.o(i.____hardfp_atan$lsc) refers to dunder.o(i.__mathlib_dbl_infnan) for __mathlib_dbl_infnan
    atan_x.o(i.____hardfp_atan$lsc) refers to fabs.o(i.fabs) for fabs
    atan_x.o(i.____hardfp_atan$lsc) refers to daddsub_clz.o(x$fpl$dadd) for __aeabi_dadd
    atan_x.o(i.____hardfp_atan$lsc) refers to dmul.o(x$fpl$dmul) for __aeabi_dmul
    atan_x.o(i.____hardfp_atan$lsc) refers to daddsub_clz.o(x$fpl$dsub) for __aeabi_dsub
    atan_x.o(i.____hardfp_atan$lsc) refers to ddiv.o(x$fpl$ddiv) for __aeabi_ddiv
    atan_x.o(i.____hardfp_atan$lsc) refers to poly.o(i.__kernel_poly) for __kernel_poly
    atan_x.o(i.____hardfp_atan$lsc) refers to daddsub_clz.o(x$fpl$drsb) for __aeabi_drsub
    atan_x.o(i.____hardfp_atan$lsc) refers to basic.o(x$fpl$basic) for __aeabi_dneg
    atan_x.o(i.____hardfp_atan$lsc) refers to atan_x.o(.constdata) for .constdata
    atan_x.o(i.____softfp_atan$lsc) refers (Special) to usenofp.o(x$fpl$usenofp) for __I$use$fp
    atan_x.o(i.____softfp_atan$lsc) refers to atan_x.o(i.____hardfp_atan$lsc) for ____hardfp_atan$lsc
    atan_x.o(i.__atan$lsc) refers (Special) to usenofp.o(x$fpl$usenofp) for __I$use$fp
    atan_x.o(i.__atan$lsc) refers to atan_x.o(i.____hardfp_atan$lsc) for ____hardfp_atan$lsc
    atan_x.o(.constdata) refers (Special) to usenofp.o(x$fpl$usenofp) for __I$use$fp
    cosf.o(i.__hardfp_cosf) refers (Special) to usenofp.o(x$fpl$usenofp) for __I$use$fp
    cosf.o(i.__hardfp_cosf) refers to rredf.o(i.__mathlib_rredf2) for __mathlib_rredf2
    cosf.o(i.__hardfp_cosf) refers to _rserrno.o(.text) for __set_errno
    cosf.o(i.__hardfp_cosf) refers to funder.o(i.__mathlib_flt_invalid) for __mathlib_flt_invalid
    cosf.o(i.__hardfp_cosf) refers to funder.o(i.__mathlib_flt_infnan) for __mathlib_flt_infnan
    cosf.o(i.__softfp_cosf) refers (Special) to usenofp.o(x$fpl$usenofp) for __I$use$fp
    cosf.o(i.__softfp_cosf) refers to cosf.o(i.__hardfp_cosf) for __hardfp_cosf
    cosf.o(i.cosf) refers (Special) to usenofp.o(x$fpl$usenofp) for __I$use$fp
    cosf.o(i.cosf) refers to cosf.o(i.__hardfp_cosf) for __hardfp_cosf
    cosf_x.o(i.____hardfp_cosf$lsc) refers (Special) to usenofp.o(x$fpl$usenofp) for __I$use$fp
    cosf_x.o(i.____hardfp_cosf$lsc) refers to rredf.o(i.__mathlib_rredf2) for __mathlib_rredf2
    cosf_x.o(i.____hardfp_cosf$lsc) refers to _rserrno.o(.text) for __set_errno
    cosf_x.o(i.____hardfp_cosf$lsc) refers to funder.o(i.__mathlib_flt_infnan) for __mathlib_flt_infnan
    cosf_x.o(i.____softfp_cosf$lsc) refers (Special) to usenofp.o(x$fpl$usenofp) for __I$use$fp
    cosf_x.o(i.____softfp_cosf$lsc) refers to cosf_x.o(i.____hardfp_cosf$lsc) for ____hardfp_cosf$lsc
    cosf_x.o(i.__cosf$lsc) refers (Special) to usenofp.o(x$fpl$usenofp) for __I$use$fp
    cosf_x.o(i.__cosf$lsc) refers to cosf_x.o(i.____hardfp_cosf$lsc) for ____hardfp_cosf$lsc
    sinf.o(i.__hardfp_sinf) refers (Special) to usenofp.o(x$fpl$usenofp) for __I$use$fp
    sinf.o(i.__hardfp_sinf) refers to rredf.o(i.__mathlib_rredf2) for __mathlib_rredf2
    sinf.o(i.__hardfp_sinf) refers to fpclassifyf.o(i.__ARM_fpclassifyf) for __ARM_fpclassifyf
    sinf.o(i.__hardfp_sinf) refers to funder.o(i.__mathlib_flt_underflow) for __mathlib_flt_underflow
    sinf.o(i.__hardfp_sinf) refers to _rserrno.o(.text) for __set_errno
    sinf.o(i.__hardfp_sinf) refers to funder.o(i.__mathlib_flt_invalid) for __mathlib_flt_invalid
    sinf.o(i.__hardfp_sinf) refers to funder.o(i.__mathlib_flt_infnan) for __mathlib_flt_infnan
    sinf.o(i.__softfp_sinf) refers (Special) to usenofp.o(x$fpl$usenofp) for __I$use$fp
    sinf.o(i.__softfp_sinf) refers to sinf.o(i.__hardfp_sinf) for __hardfp_sinf
    sinf.o(i.sinf) refers (Special) to usenofp.o(x$fpl$usenofp) for __I$use$fp
    sinf.o(i.sinf) refers to sinf.o(i.__hardfp_sinf) for __hardfp_sinf
    sinf_x.o(i.____hardfp_sinf$lsc) refers (Special) to usenofp.o(x$fpl$usenofp) for __I$use$fp
    sinf_x.o(i.____hardfp_sinf$lsc) refers to rredf.o(i.__mathlib_rredf2) for __mathlib_rredf2
    sinf_x.o(i.____hardfp_sinf$lsc) refers to _rserrno.o(.text) for __set_errno
    sinf_x.o(i.____hardfp_sinf$lsc) refers to funder.o(i.__mathlib_flt_infnan) for __mathlib_flt_infnan
    sinf_x.o(i.____softfp_sinf$lsc) refers (Special) to usenofp.o(x$fpl$usenofp) for __I$use$fp
    sinf_x.o(i.____softfp_sinf$lsc) refers to sinf_x.o(i.____hardfp_sinf$lsc) for ____hardfp_sinf$lsc
    sinf_x.o(i.__sinf$lsc) refers (Special) to usenofp.o(x$fpl$usenofp) for __I$use$fp
    sinf_x.o(i.__sinf$lsc) refers to sinf_x.o(i.____hardfp_sinf$lsc) for ____hardfp_sinf$lsc
    libspace.o(.text) refers to libspace.o(.bss) for __libspace_start
    __rtentry.o(.ARM.Collect$$rtentry$$00000000) refers (Special) to __rtentry2.o(.ARM.Collect$$rtentry$$0000000A) for __rt_entry_li
    __rtentry.o(.ARM.Collect$$rtentry$$00000000) refers (Special) to __rtentry2.o(.ARM.Collect$$rtentry$$0000000D) for __rt_entry_main
    __rtentry.o(.ARM.Collect$$rtentry$$00000000) refers (Special) to __rtentry2.o(.ARM.Collect$$rtentry$$0000000C) for __rt_entry_postli_1
    __rtentry.o(.ARM.Collect$$rtentry$$00000000) refers (Special) to __rtentry2.o(.ARM.Collect$$rtentry$$00000009) for __rt_entry_postsh_1
    __rtentry.o(.ARM.Collect$$rtentry$$00000000) refers (Special) to __rtentry2.o(.ARM.Collect$$rtentry$$00000002) for __rt_entry_presh_1
    __rtentry.o(.ARM.Collect$$rtentry$$00000000) refers (Special) to __rtentry4.o(.ARM.Collect$$rtentry$$00000004) for __rt_entry_sh
    rt_ddtor_pointer_addr.o(.text) refers to rt_ddtor_pointer_addr.o(.bss) for __rt_ddtor_pointer_addr_data
    rt_ddtor_pointer_addr_intlibspace.o(.text) refers to libspace.o(.bss) for __libspace_start
    malloc.o(.text) refers (Special) to hguard.o(.text) for __heap$guard
    malloc.o(.text) refers (Special) to init_alloc.o(.text) for _init_alloc
    malloc.o(.text) refers to rt_heap_descriptor_intlibspace.o(.text) for __rt_heap_descriptor
    malloc.o(.text) refers to heapstubs.o(.text) for __Heap_Alloc
    h1_alloc.o(.text) refers (Special) to h1_init.o(.text) for __Heap_Initialize
    h1_alloc.o(.text) refers to rt_heap_descriptor_intlibspace.o(.text) for __rt_heap_descriptor
    h1_alloc.o(.text) refers to init_alloc.o(.text) for __Heap_Full
    h1_alloc_mt.o(.text) refers (Special) to h1_init.o(.text) for __Heap_Initialize
    h1_alloc_mt.o(.text) refers to init_alloc.o(.text) for __Heap_Full
    h1_alloc_mt.o(.text) refers to rt_heap_descriptor_intlibspace.o(.text) for __rt_heap_descriptor
    heap2.o(i._FDIterate) refers to heap2.o(.conststring) for .conststring
    heap2.o(i.___Heap_ProvideMemory$realtime) refers to fdtree.o(i._FDTree_Delete) for _FDTree_Delete
    heap2.o(i.___Heap_ProvideMemory$realtime) refers to fdtree.o(i._FDTree_Insert) for _FDTree_Insert
    heap2.o(i.___Heap_Stats$realtime) refers to heap2.o(i._Heap2_StatsIterate) for _Heap2_StatsIterate
    heap2.o(i.___Heap_Valid$realtime) refers to heap2.o(i._FDIterate) for _FDIterate
    heap2.o(i.___Heap_Valid$realtime) refers to heap2.o(.conststring) for .conststring
    heap2.o(i._free$realtime) refers to rt_heap_descriptor_intlibspace.o(.text) for __rt_heap_descriptor
    heap2.o(i._free$realtime) refers to fdtree.o(i._FDTree_Delete) for _FDTree_Delete
    heap2.o(i._free$realtime) refers to fdtree.o(i._FDTree_Insert) for _FDTree_Insert
    heap2.o(i._malloc$realtime) refers to rt_heap_descriptor_intlibspace.o(.text) for __rt_heap_descriptor
    heap2.o(i._malloc$realtime) refers to fdtree.o(i._FDTree_FindFirst) for _FDTree_FindFirst
    heap2.o(i._malloc$realtime) refers to init_alloc.o(.text) for __Heap_Full
    heap2.o(i._malloc$realtime) refers to fdtree.o(i._FDTree_RemoveNode) for _FDTree_RemoveNode
    heap2.o(i._malloc$realtime) refers to fdtree.o(i._FDTree_Insert) for _FDTree_Insert
    heap2.o(i._posix_memalign$realtime) refers to rt_heap_descriptor_intlibspace.o(.text) for __rt_heap_descriptor
    heap2.o(i._posix_memalign$realtime) refers to fdtree.o(i._FDTree_FindFirst) for _FDTree_FindFirst
    heap2.o(i._posix_memalign$realtime) refers to init_alloc.o(.text) for __Heap_Full
    heap2.o(i._posix_memalign$realtime) refers to fdtree.o(i._FDTree_RemoveNode) for _FDTree_RemoveNode
    heap2.o(i._posix_memalign$realtime) refers to fdtree.o(i._FDTree_Insert) for _FDTree_Insert
    heap2.o(i._realloc$realtime) refers to rt_heap_descriptor_intlibspace.o(.text) for __rt_heap_descriptor
    heap2.o(i._realloc$realtime) refers to fdtree.o(i._FDTree_Insert) for _FDTree_Insert
    heap2.o(i._realloc$realtime) refers to h1_free.o(.text) for free
    heap2.o(i._realloc$realtime) refers to h1_alloc.o(.text) for malloc
    heap2.o(i._realloc$realtime) refers to fdtree.o(i._FDTree_Delete) for _FDTree_Delete
    heap2.o(i._realloc$realtime) refers to rt_memcpy_w.o(.text) for __aeabi_memcpy4
    heap2mt.o(i._FDIterate) refers to heap2mt.o(.conststring) for .conststring
    heap2mt.o(i.___Heap_Initialize$realtime$concurrent) refers to mutex_dummy.o(.text) for _mutex_initialize
    heap2mt.o(i.___Heap_ProvideMemory$realtime$concurrent) refers to fdtree.o(i._FDTree_Delete) for _FDTree_Delete
    heap2mt.o(i.___Heap_ProvideMemory$realtime$concurrent) refers to fdtree.o(i._FDTree_Insert) for _FDTree_Insert
    heap2mt.o(i.___Heap_Stats$realtime$concurrent) refers to heap2mt.o(i._Heap2_StatsIterate) for _Heap2_StatsIterate
    heap2mt.o(i.___Heap_Valid$realtime$concurrent) refers to heap2mt.o(i._FDIterate) for _FDIterate
    heap2mt.o(i.___Heap_Valid$realtime$concurrent) refers to heap2mt.o(.conststring) for .conststring
    heap2mt.o(i._free$realtime$concurrent) refers to rt_heap_descriptor_intlibspace.o(.text) for __rt_heap_descriptor
    heap2mt.o(i._free$realtime$concurrent) refers to fdtree.o(i._FDTree_Delete) for _FDTree_Delete
    heap2mt.o(i._free$realtime$concurrent) refers to fdtree.o(i._FDTree_Insert) for _FDTree_Insert
    heap2mt.o(i._malloc$realtime$concurrent) refers to rt_heap_descriptor_intlibspace.o(.text) for __rt_heap_descriptor
    heap2mt.o(i._malloc$realtime$concurrent) refers to fdtree.o(i._FDTree_FindFirst) for _FDTree_FindFirst
    heap2mt.o(i._malloc$realtime$concurrent) refers to init_alloc.o(.text) for __Heap_Full
    heap2mt.o(i._malloc$realtime$concurrent) refers to fdtree.o(i._FDTree_RemoveNode) for _FDTree_RemoveNode
    heap2mt.o(i._malloc$realtime$concurrent) refers to fdtree.o(i._FDTree_Insert) for _FDTree_Insert
    heap2mt.o(i._posix_memalign$realtime$concurrent) refers to rt_heap_descriptor_intlibspace.o(.text) for __rt_heap_descriptor
    heap2mt.o(i._posix_memalign$realtime$concurrent) refers to fdtree.o(i._FDTree_FindFirst) for _FDTree_FindFirst
    heap2mt.o(i._posix_memalign$realtime$concurrent) refers to init_alloc.o(.text) for __Heap_Full
    heap2mt.o(i._posix_memalign$realtime$concurrent) refers to fdtree.o(i._FDTree_RemoveNode) for _FDTree_RemoveNode
    heap2mt.o(i._posix_memalign$realtime$concurrent) refers to fdtree.o(i._FDTree_Insert) for _FDTree_Insert
    heap2mt.o(i._realloc$realtime$concurrent) refers to rt_heap_descriptor_intlibspace.o(.text) for __rt_heap_descriptor
    heap2mt.o(i._realloc$realtime$concurrent) refers to fdtree.o(i._FDTree_Insert) for _FDTree_Insert
    heap2mt.o(i._realloc$realtime$concurrent) refers to h1_free.o(.text) for free
    heap2mt.o(i._realloc$realtime$concurrent) refers to h1_alloc.o(.text) for malloc
    heap2mt.o(i._realloc$realtime$concurrent) refers to fdtree.o(i._FDTree_Delete) for _FDTree_Delete
    heap2mt.o(i._realloc$realtime$concurrent) refers to rt_memcpy_w.o(.text) for __aeabi_memcpy4
    _rserrno.o(.text) refers to rt_errno_addr_intlibspace.o(.text) for __aeabi_errno_addr
    libinit2.o(.ARM.Collect$$libinit$$00000001) refers to fpinit.o(x$fpl$fpinit) for _fp_init
    libinit2.o(.ARM.Collect$$libinit$$00000005) refers (Weak) to init_alloc.o(.text) for _init_alloc
    libinit2.o(.ARM.Collect$$libinit$$0000000D) refers (Weak) to rand.o(.text) for _rand_init
    libinit2.o(.ARM.Collect$$libinit$$00000010) refers to libinit2.o(.ARM.Collect$$libinit$$0000000F) for .ARM.Collect$$libinit$$0000000F
    libinit2.o(.ARM.Collect$$libinit$$00000012) refers to libinit2.o(.ARM.Collect$$libinit$$0000000F) for .ARM.Collect$$libinit$$0000000F
    libinit2.o(.ARM.Collect$$libinit$$00000014) refers to libinit2.o(.ARM.Collect$$libinit$$0000000F) for .ARM.Collect$$libinit$$0000000F
    libinit2.o(.ARM.Collect$$libinit$$00000016) refers to libinit2.o(.ARM.Collect$$libinit$$0000000F) for .ARM.Collect$$libinit$$0000000F
    libinit2.o(.ARM.Collect$$libinit$$00000018) refers to libinit2.o(.ARM.Collect$$libinit$$0000000F) for .ARM.Collect$$libinit$$0000000F
    libinit2.o(.ARM.Collect$$libinit$$00000026) refers to argv_veneer.o(.emb_text) for __ARM_argv_veneer
    libinit2.o(.ARM.Collect$$libinit$$00000027) refers to argv_veneer.o(.emb_text) for __ARM_argv_veneer
    libinit2.o(.ARM.Collect$$libinit$$00000031) refers (Weak) to init_aeabi.o(.text) for __cpp_initialize__aeabi_
    libshutdown2.o(.ARM.Collect$$libshutdown$$00000001) refers (Weak) to cxa_finalize.o(i.__cxa_finalize) for __cxa_finalize
    libshutdown2.o(.ARM.Collect$$libshutdown$$0000000C) refers (Weak) to term_alloc.o(.text) for _terminate_alloc
    unwind_pr0.o(.text) refers to unwind_prcommon.o(.text) for __ARM_unwind_cpp_prcommon
    cxa_atexit.o(i.__cxa_atexit) refers (Special) to libshutdown2.o(.ARM.Collect$$libshutdown$$00000001) for __rt_lib_shutdown_cpp_1
    cxa_atexit.o(i.__cxa_atexit) refers to aeabi_atexit.o(i.__aeabi_atexit) for __aeabi_atexit
    cxa_atexit.o(.ARM.exidx) refers (Special) to libshutdown2.o(.ARM.Collect$$libshutdown$$00000001) for __rt_lib_shutdown_cpp_1
    cxa_atexit.o(.ARM.exidx) refers to cxa_atexit.o(i.__cxa_atexit) for i.__cxa_atexit
    cxa_finalize.o(i.__cxa_finalize) refers (Special) to libshutdown2.o(.ARM.Collect$$libshutdown$$00000001) for __rt_lib_shutdown_cpp_1
    cxa_finalize.o(i.__cxa_finalize) refers to rt_ddtor_pointer_addr_intlibspace.o(.text) for __rt_ddtor_pointer_addr
    cxa_finalize.o(i.__cxa_finalize) refers to h1_free.o(.text) for free
    cxa_finalize.o(.ARM.exidx) refers (Special) to libshutdown2.o(.ARM.Collect$$libshutdown$$00000001) for __rt_lib_shutdown_cpp_1
    cxa_finalize.o(.ARM.exidx) refers to cxa_finalize.o(i.__cxa_finalize) for i.__cxa_finalize
    type_info_dtor.o(.ARM.exidx) refers to type_info_dtor.o(i._ZNSt9type_infoD1Ev) for i._ZNSt9type_infoD1Ev
    type_info_dtor.o(.ARM.exidx) refers to type_info_dtor.o(i._ZNSt9type_infoD0Ev) for i._ZNSt9type_infoD0Ev
    arm_exceptions_callterm.o(.text) refers to arm_exceptions_globs.o(.text) for __cxa_get_globals
    arm_exceptions_callterm.o(.text) refers to arm_exceptions_support.o(.text) for __ARM::is_foreign_exception(_Unwind_Control_Block*)
    arm_exceptions_callterm.o(.text) refers to arm_exceptions_terminate.o(.text) for std::terminate()
    arm_exceptions_callterm.o(.ARM.exidx) refers to arm_exceptions_callterm.o(.text) for .text
    basic.o(x$fpl$basic) refers (Special) to usenofp.o(x$fpl$usenofp) for __I$use$fp
    ddiv.o(x$fpl$drdiv) refers (Special) to usenofp.o(x$fpl$usenofp) for __I$use$fp
    ddiv.o(x$fpl$drdiv) refers to ddiv.o(x$fpl$ddiv) for ddiv_entry
    ddiv.o(x$fpl$ddiv) refers (Special) to usenofp.o(x$fpl$usenofp) for __I$use$fp
    ddiv.o(x$fpl$ddiv) refers to dretinf.o(x$fpl$dretinf) for __fpl_dretinf
    ddiv.o(x$fpl$ddiv) refers to dnaninf.o(x$fpl$dnaninf) for __fpl_dnaninf
    dnaninf.o(x$fpl$dnaninf) refers (Special) to usenofp.o(x$fpl$usenofp) for __I$use$fp
    dretinf.o(x$fpl$dretinf) refers (Special) to usenofp.o(x$fpl$usenofp) for __I$use$fp
    fnaninf.o(x$fpl$fnaninf) refers (Special) to usenofp.o(x$fpl$usenofp) for __I$use$fp
    fretinf.o(x$fpl$fretinf) refers (Special) to usenofp.o(x$fpl$usenofp) for __I$use$fp
    dunder.o(i.__mathlib_dbl_divzero) refers to ddiv.o(x$fpl$ddiv) for __aeabi_ddiv
    dunder.o(i.__mathlib_dbl_infnan) refers to daddsub_clz.o(x$fpl$dadd) for __aeabi_dadd
    dunder.o(i.__mathlib_dbl_infnan2) refers to daddsub_clz.o(x$fpl$dadd) for __aeabi_dadd
    dunder.o(i.__mathlib_dbl_invalid) refers to ddiv.o(x$fpl$ddiv) for __aeabi_ddiv
    dunder.o(i.__mathlib_dbl_overflow) refers to dmul.o(x$fpl$dmul) for __aeabi_dmul
    dunder.o(i.__mathlib_dbl_posinfnan) refers to dmul.o(x$fpl$dmul) for __aeabi_dmul
    dunder.o(i.__mathlib_dbl_underflow) refers to dmul.o(x$fpl$dmul) for __aeabi_dmul
    fabs.o(i.__hardfp_fabs) refers (Special) to usenofp.o(x$fpl$usenofp) for __I$use$fp
    fabs.o(i.__softfp_fabs) refers (Special) to usenofp.o(x$fpl$usenofp) for __I$use$fp
    fabs.o(i.fabs) refers (Special) to usenofp.o(x$fpl$usenofp) for __I$use$fp
    fpclassify.o(i.__ARM_fpclassify) refers (Special) to usenofp.o(x$fpl$usenofp) for __I$use$fp
    fpclassifyf.o(i.__ARM_fpclassifyf) refers (Special) to usenofp.o(x$fpl$usenofp) for __I$use$fp
    poly.o(i.__kernel_poly) refers (Special) to usenofp.o(x$fpl$usenofp) for __I$use$fp
    poly.o(i.__kernel_poly) refers to dmul.o(x$fpl$dmul) for __aeabi_dmul
    poly.o(i.__kernel_poly) refers to daddsub_clz.o(x$fpl$dadd) for __aeabi_dadd
    rredf.o(i.__mathlib_rredf2) refers (Special) to usenofp.o(x$fpl$usenofp) for __I$use$fp
    rredf.o(i.__mathlib_rredf2) refers to rredf.o(.constdata) for .constdata
    rredf.o(.constdata) refers (Special) to usenofp.o(x$fpl$usenofp) for __I$use$fp
    __rtentry2.o(.ARM.Collect$$rtentry$$00000008) refers to boardinit2.o(.text) for _platform_post_stackheap_init
    __rtentry2.o(.ARM.Collect$$rtentry$$0000000A) refers to libinit.o(.ARM.Collect$$libinit$$00000000) for __rt_lib_init
    __rtentry2.o(.ARM.Collect$$rtentry$$0000000B) refers to boardinit3.o(.text) for _platform_post_lib_init
    __rtentry2.o(.ARM.Collect$$rtentry$$0000000D) refers to main.o(.text) for main
    __rtentry2.o(.ARM.Collect$$rtentry$$0000000D) refers to exit.o(.text) for exit
    __rtentry2.o(.ARM.exidx) refers to __rtentry2.o(.ARM.Collect$$rtentry$$00000001) for .ARM.Collect$$rtentry$$00000001
    __rtentry2.o(.ARM.exidx) refers to __rtentry2.o(.ARM.Collect$$rtentry$$00000008) for .ARM.Collect$$rtentry$$00000008
    __rtentry2.o(.ARM.exidx) refers to __rtentry2.o(.ARM.Collect$$rtentry$$0000000A) for .ARM.Collect$$rtentry$$0000000A
    __rtentry2.o(.ARM.exidx) refers to __rtentry2.o(.ARM.Collect$$rtentry$$0000000B) for .ARM.Collect$$rtentry$$0000000B
    __rtentry2.o(.ARM.exidx) refers to __rtentry2.o(.ARM.Collect$$rtentry$$0000000D) for .ARM.Collect$$rtentry$$0000000D
    __rtentry4.o(.ARM.Collect$$rtentry$$00000004) refers to sys_stackheap_outer.o(.text) for __user_setup_stackheap
    __rtentry4.o(.ARM.exidx) refers to __rtentry4.o(.ARM.Collect$$rtentry$$00000004) for .ARM.Collect$$rtentry$$00000004
    rt_heap_descriptor.o(.text) refers to rt_heap_descriptor.o(.bss) for __rt_heap_descriptor_data
    rt_heap_descriptor_intlibspace.o(.text) refers to libspace.o(.bss) for __libspace_start
    init_alloc.o(.text) refers (Special) to hguard.o(.text) for __heap$guard
    init_alloc.o(.text) refers (Special) to libinit2.o(.ARM.Collect$$libinit$$00000005) for __rt_lib_init_heap_2
    init_alloc.o(.text) refers (Special) to maybetermalloc1.o(.emb_text) for _maybe_terminate_alloc
    init_alloc.o(.text) refers to h1_extend.o(.text) for __Heap_ProvideMemory
    init_alloc.o(.text) refers to defsig_rtmem_outer.o(.text) for __rt_SIGRTMEM
    init_alloc.o(.text) refers to rt_heap_descriptor_intlibspace.o(.text) for __rt_heap_descriptor
    init_alloc.o(.text) refers to h1_init.o(.text) for __Heap_Initialize
    free.o(.text) refers (Special) to hguard.o(.text) for __heap$guard
    free.o(.text) refers to rt_heap_descriptor_intlibspace.o(.text) for __rt_heap_descriptor
    free.o(.text) refers to heapstubs.o(.text) for __Heap_Free
    h1_free.o(.text) refers to rt_heap_descriptor_intlibspace.o(.text) for __rt_heap_descriptor
    h1_init_mt.o(.text) refers to mutex_dummy.o(.text) for _mutex_initialize
    h1_free_mt.o(.text) refers to rt_heap_descriptor_intlibspace.o(.text) for __rt_heap_descriptor
    _get_argv.o(.text) refers (Special) to hrguard.o(.text) for __heap_region$guard
    _get_argv.o(.text) refers to h1_alloc.o(.text) for malloc
    _get_argv.o(.text) refers to defsig_rtmem_outer.o(.text) for __rt_SIGRTMEM
    _get_argv.o(.text) refers to sys_command.o(.text) for _sys_command_string
    argv_veneer.o(.emb_text) refers to no_argv.o(.text) for __ARM_get_argv
    unwind_prcommon.o(.text) refers to unwinder.o(.text) for _Unwind_VRS_Get
    unwind_prcommon.o(.text) refers to unwind_activity.o(.emb_text) for _Unwind_Activity
    arm_begincatch_noexceptions.o(.ARM.exidx) refers to arm_begincatch_noexceptions.o(.text) for .text
    arm_exceptions_support.o(.text) refers to arm_exceptions_support.o(.constdata) for .constdata
    arm_exceptions_support.o(.ARM.exidx) refers to arm_exceptions_support.o(.text) for .text
    arm_exceptions_terminate.o(.text) refers to arm_exceptions_globs.o(.text) for __cxa_get_globals
    arm_exceptions_terminate.o(.text) refers to abort.o(.text) for abort
    arm_exceptions_terminate.o(.ARM.exidx) refers to arm_exceptions_terminate.o(.text) for .text
    arm_exceptions_globs.o(.text) refers to abort.o(.text) for abort
    arm_exceptions_globs.o(.text) refers to rt_eh_globals_addr_intlibspace.o(.text) for __rt_eh_globals_addr
    arm_exceptions_globs.o(.text) refers to h1_alloc.o(.text) for malloc
    arm_exceptions_globs.o(.text) refers to arm_exceptions_mem.o(.text) for __ARM_exceptions_buffer_init
    arm_exceptions_globs.o(.ARM.exidx) refers to arm_exceptions_globs.o(.text) for .text
    sys_command.o(.text) refers (Special) to use_no_semi.o(.text) for __I$use$semihosting
    sys_command.o(.text) refers (Special) to indicate_semi.o(.text) for __semihosting_library_function
    sys_stackheap_outer.o(.text) refers to libspace.o(.text) for __user_perproc_libspace
    sys_stackheap_outer.o(.text) refers to startup_stm32f417xx.o(.text) for __user_initial_stackheap
    rt_eh_globals_addr.o(.text) refers to rt_eh_globals_addr.o(.bss) for __rt_eh_globals_addr_data
    rt_eh_globals_addr_intlibspace.o(.text) refers to libspace.o(.bss) for __libspace_start
    maybetermalloc2.o(.emb_text) refers (Special) to term_alloc.o(.text) for _terminate_alloc
    h1_extend.o(.text) refers to h1_free.o(.text) for free
    h1_extend_mt.o(.text) refers to h1_free_mt.o(.text) for _free_internal
    exit.o(.text) refers to rtexit.o(.ARM.Collect$$rtexit$$00000000) for __rt_exit
    abort.o(.text) refers to defsig_abrt_outer.o(.text) for __rt_SIGABRT
    abort.o(.text) refers (Weak) to libshutdown.o(.ARM.Collect$$libshutdown$$00000000) for __rt_lib_shutdown
    abort.o(.text) refers to sys_exit.o(.text) for _sys_exit
    defsig_rtmem_outer.o(.text) refers to defsig_rtmem_inner.o(.text) for __rt_SIGRTMEM_inner
    defsig_rtmem_outer.o(.text) refers to defsig_exit.o(.text) for __sig_exit
    defsig_rtmem_formal.o(.text) refers to rt_raise.o(.text) for __rt_raise
    heapauxa.o(.text) refers to heapauxa.o(.data) for .data
    _get_argv_nomalloc.o(.text) refers (Special) to hrguard.o(.text) for __heap_region$guard
    _get_argv_nomalloc.o(.text) refers to defsig_rtmem_outer.o(.text) for __rt_SIGRTMEM
    _get_argv_nomalloc.o(.text) refers to sys_command.o(.text) for _sys_command_string
    libinit.o(.ARM.Collect$$libinit$$00000000) refers (Special) to libinit2.o(.ARM.Collect$$libinit$$0000002E) for __rt_lib_init_alloca_1
    libinit.o(.ARM.Collect$$libinit$$00000000) refers (Special) to libinit2.o(.ARM.Collect$$libinit$$0000002C) for __rt_lib_init_argv_1
    libinit.o(.ARM.Collect$$libinit$$00000000) refers (Special) to libinit2.o(.ARM.Collect$$libinit$$0000001B) for __rt_lib_init_atexit_1
    libinit.o(.ARM.Collect$$libinit$$00000000) refers (Special) to libinit2.o(.ARM.Collect$$libinit$$00000021) for __rt_lib_init_clock_1
    libinit.o(.ARM.Collect$$libinit$$00000000) refers (Special) to libinit2.o(.ARM.Collect$$libinit$$00000032) for __rt_lib_init_cpp_1
    libinit.o(.ARM.Collect$$libinit$$00000000) refers (Special) to libinit2.o(.ARM.Collect$$libinit$$00000030) for __rt_lib_init_exceptions_1
    libinit.o(.ARM.Collect$$libinit$$00000000) refers (Special) to libinit2.o(.ARM.Collect$$libinit$$00000001) for __rt_lib_init_fp_1
    libinit.o(.ARM.Collect$$libinit$$00000000) refers (Special) to libinit2.o(.ARM.Collect$$libinit$$0000001F) for __rt_lib_init_fp_trap_1
    libinit.o(.ARM.Collect$$libinit$$00000000) refers (Special) to libinit2.o(.ARM.Collect$$libinit$$00000023) for __rt_lib_init_getenv_1
    libinit.o(.ARM.Collect$$libinit$$00000000) refers (Special) to libinit2.o(.ARM.Collect$$libinit$$0000000A) for __rt_lib_init_heap_1
    libinit.o(.ARM.Collect$$libinit$$00000000) refers (Special) to libinit2.o(.ARM.Collect$$libinit$$00000011) for __rt_lib_init_lc_collate_1
    libinit.o(.ARM.Collect$$libinit$$00000000) refers (Special) to libinit2.o(.ARM.Collect$$libinit$$00000013) for __rt_lib_init_lc_ctype_1
    libinit.o(.ARM.Collect$$libinit$$00000000) refers (Special) to libinit2.o(.ARM.Collect$$libinit$$00000015) for __rt_lib_init_lc_monetary_1
    libinit.o(.ARM.Collect$$libinit$$00000000) refers (Special) to libinit2.o(.ARM.Collect$$libinit$$00000017) for __rt_lib_init_lc_numeric_1
    libinit.o(.ARM.Collect$$libinit$$00000000) refers (Special) to libinit2.o(.ARM.Collect$$libinit$$00000019) for __rt_lib_init_lc_time_1
    libinit.o(.ARM.Collect$$libinit$$00000000) refers (Special) to libinit2.o(.ARM.Collect$$libinit$$00000004) for __rt_lib_init_preinit_1
    libinit.o(.ARM.Collect$$libinit$$00000000) refers (Special) to libinit2.o(.ARM.Collect$$libinit$$0000000E) for __rt_lib_init_rand_1
    libinit.o(.ARM.Collect$$libinit$$00000000) refers (Special) to libinit2.o(.ARM.Collect$$libinit$$00000033) for __rt_lib_init_return
    libinit.o(.ARM.Collect$$libinit$$00000000) refers (Special) to libinit2.o(.ARM.Collect$$libinit$$0000001D) for __rt_lib_init_signal_1
    libinit.o(.ARM.Collect$$libinit$$00000000) refers (Special) to libinit2.o(.ARM.Collect$$libinit$$00000025) for __rt_lib_init_stdio_1
    libinit.o(.ARM.Collect$$libinit$$00000000) refers (Special) to libinit2.o(.ARM.Collect$$libinit$$0000000C) for __rt_lib_init_user_alloc_1
    unwinder.o(.emb_text) refers to unwinder.o(.text) for __ARM_Unwind_RaiseException
    unwinder.o(.text) refers to bsearchnoex.o(.text) for bsearch
    unwinder.o(.text) refers to unwind_activity.o(.emb_text) for _Unwind_Activity
    unwinder.o(.text) refers to abort.o(.text) for abort
    unwinder.o(.text) refers to unwinder.o(.emb_text) for __ARM_Unwind_VRS_corerestore
    unwinder.o(.text) refers to h1_alloc.o(.text) for malloc
    unwinder.o(.text) refers to rt_memcpy_w.o(.text) for __aeabi_memcpy4
    unwinder.o(.text) refers to h1_free.o(.text) for free
    unwinder.o(.text) refers (Weak) to unwind_pr0.o(.text) for __aeabi_unwind_cpp_pr0
    arm_exceptions_mem.o(.text) refers to h1_alloc.o(.text) for malloc
    arm_exceptions_mem.o(.ARM.exidx) refers to arm_exceptions_mem.o(.text) for .text
    sys_exit.o(.text) refers (Special) to use_no_semi.o(.text) for __I$use$semihosting
    sys_exit.o(.text) refers (Special) to indicate_semi.o(.text) for __semihosting_library_function
    rtexit.o(.ARM.Collect$$rtexit$$00000000) refers (Special) to rtexit2.o(.ARM.Collect$$rtexit$$00000004) for __rt_exit_exit
    rtexit.o(.ARM.Collect$$rtexit$$00000000) refers (Special) to rtexit2.o(.ARM.Collect$$rtexit$$00000003) for __rt_exit_ls
    rtexit.o(.ARM.Collect$$rtexit$$00000000) refers (Special) to rtexit2.o(.ARM.Collect$$rtexit$$00000002) for __rt_exit_prels_1
    rtexit.o(.ARM.exidx) refers (Special) to rtexit2.o(.ARM.Collect$$rtexit$$00000004) for __rt_exit_exit
    rtexit.o(.ARM.exidx) refers (Special) to rtexit2.o(.ARM.Collect$$rtexit$$00000003) for __rt_exit_ls
    rtexit.o(.ARM.exidx) refers (Special) to rtexit2.o(.ARM.Collect$$rtexit$$00000002) for __rt_exit_prels_1
    rtexit.o(.ARM.exidx) refers to rtexit.o(.ARM.Collect$$rtexit$$00000000) for .ARM.Collect$$rtexit$$00000000
    rt_raise.o(.text) refers to __raise.o(.text) for __raise
    rt_raise.o(.text) refers to sys_exit.o(.text) for _sys_exit
    term_alloc.o(.text) refers (Special) to libshutdown2.o(.ARM.Collect$$libshutdown$$0000000D) for __rt_lib_shutdown_heap_2
    term_alloc.o(.text) refers to rt_heap_descriptor_intlibspace.o(.text) for __rt_heap_descriptor
    term_alloc.o(.text) refers to h1_final.o(.text) for __Heap_Finalize
    defsig_exit.o(.text) refers to sys_exit.o(.text) for _sys_exit
    defsig_abrt_outer.o(.text) refers to defsig_abrt_inner.o(.text) for __rt_SIGABRT_inner
    defsig_abrt_outer.o(.text) refers to defsig_exit.o(.text) for __sig_exit
    defsig_abrt_formal.o(.text) refers to rt_raise.o(.text) for __rt_raise
    defsig_rtmem_inner.o(.text) refers to defsig_general.o(.text) for __default_signal_display
    rtexit2.o(.ARM.Collect$$rtexit$$00000003) refers to libshutdown.o(.ARM.Collect$$libshutdown$$00000000) for __rt_lib_shutdown
    rtexit2.o(.ARM.Collect$$rtexit$$00000004) refers to sys_exit.o(.text) for _sys_exit
    rtexit2.o(.ARM.exidx) refers to rtexit2.o(.ARM.Collect$$rtexit$$00000001) for .ARM.Collect$$rtexit$$00000001
    rtexit2.o(.ARM.exidx) refers to rtexit2.o(.ARM.Collect$$rtexit$$00000003) for .ARM.Collect$$rtexit$$00000003
    rtexit2.o(.ARM.exidx) refers to rtexit2.o(.ARM.Collect$$rtexit$$00000004) for .ARM.Collect$$rtexit$$00000004
    __raise.o(.text) refers to defsig.o(CL$$defsig) for __default_signal_handler
    defsig_general.o(.text) refers to sys_wrch.o(.text) for _ttywrch
    defsig_abrt_inner.o(.text) refers to defsig_general.o(.text) for __default_signal_display
    sys_wrch.o(.text) refers (Special) to use_no_semi.o(.text) for __I$use$semihosting
    sys_wrch.o(.text) refers (Special) to indicate_semi.o(.text) for __semihosting_library_function
    defsig.o(CL$$defsig) refers to defsig_abrt_inner.o(.text) for __rt_SIGABRT_inner
    defsig.o(CL$$defsig) refers to defsig_rtmem_inner.o(.text) for __rt_SIGRTMEM_inner
    libshutdown.o(.ARM.Collect$$libshutdown$$00000000) refers (Special) to libshutdown2.o(.ARM.Collect$$libshutdown$$00000006) for __rt_lib_shutdown_fp_trap_1
    libshutdown.o(.ARM.Collect$$libshutdown$$00000000) refers (Special) to libshutdown2.o(.ARM.Collect$$libshutdown$$0000000E) for __rt_lib_shutdown_heap_1
    libshutdown.o(.ARM.Collect$$libshutdown$$00000000) refers (Special) to libshutdown2.o(.ARM.Collect$$libshutdown$$0000000F) for __rt_lib_shutdown_return
    libshutdown.o(.ARM.Collect$$libshutdown$$00000000) refers (Special) to libshutdown2.o(.ARM.Collect$$libshutdown$$00000009) for __rt_lib_shutdown_signal_1
    libshutdown.o(.ARM.Collect$$libshutdown$$00000000) refers (Special) to libshutdown2.o(.ARM.Collect$$libshutdown$$00000003) for __rt_lib_shutdown_stdio_1
    libshutdown.o(.ARM.Collect$$libshutdown$$00000000) refers (Special) to libshutdown2.o(.ARM.Collect$$libshutdown$$0000000B) for __rt_lib_shutdown_user_alloc_1
    defsig_fpe_inner.o(.text) refers to defsig_general.o(.text) for __default_signal_display
    defsig_rtred_inner.o(.text) refers to defsig_general.o(.text) for __default_signal_display
    defsig_stak_inner.o(.text) refers to defsig_general.o(.text) for __default_signal_display
    defsig_pvfn_inner.o(.text) refers to defsig_general.o(.text) for __default_signal_display
    defsig_cppl_inner.o(.text) refers to defsig_general.o(.text) for __default_signal_display
    defsig_segv_inner.o(.text) refers to defsig_general.o(.text) for __default_signal_display
    defsig_other.o(.text) refers to defsig_general.o(.text) for __default_signal_display
    main.o(.constdata__ZTVN6Physic11Ball2DGroupE) refers to main.o(.constdata__ZTIN6Physic11Ball2DGroupE) for typeinfo for Physic::Ball2DGroup
    main.o(.constdata__ZTVN6Physic11Ball2DGroupE) refers to main.o(.text) for Physic::Ball2DGroup::Draw(f2P, float, unsigned)
    main.o(.ARM.exidx) refers to main.o(t._ZN12Bitmap_ClassI6ScreenE8SetScaleEff) for t._ZN12Bitmap_ClassI6ScreenE8SetScaleEff
    main.o(t._ZN12Bitmap_ClassI6ScreenE4TileI8tTextureEEi3b2DPT_t) refers to locker.o(.text) for Locker::Test()
    main.o(t._ZN12Bitmap_ClassI6ScreenE4TileI8tTextureEEi3b2DPT_t) refers to geometry.o(.text) for Coordinates::Trunc(b2D*)
    main.o(.ARM.exidx) refers to main.o(t._ZN12Bitmap_ClassI6ScreenE4TileI8tTextureEEi3b2DPT_t) for t._ZN12Bitmap_ClassI6ScreenE4TileI8tTextureEEi3b2DPT_t
    main.o(t._ZN12Bitmap_ClassI6ScreenE14NewBitmapCloseEv) refers to locker.o(.text) for Locker::Test()
    main.o(t._ZN12Bitmap_ClassI6ScreenE14NewBitmapCloseEv) refers to screen.o(.text) for Screen::operator ()(b2D, Frame2D<short>&)
    main.o(.ARM.exidx) refers to main.o(t._ZN12Bitmap_ClassI6ScreenE14NewBitmapCloseEv) for t._ZN12Bitmap_ClassI6ScreenE14NewBitmapCloseEv
    main.o(.ARM.exidx) refers to main.o(t._ZN7Frame2DIsEclE3b2DPt) for t._ZN7Frame2DIsEclE3b2DPt
    main.o(t._ZN12Bitmap_ClassI6ScreenE13NewBitmapOpenER8tTexture) refers to locker.o(.text) for Locker::Test()
    main.o(t._ZN12Bitmap_ClassI6ScreenE13NewBitmapOpenER8tTexture) refers to screen.o(.text) for Screen::GetFrame()
    main.o(t._ZN12Bitmap_ClassI6ScreenE13NewBitmapOpenER8tTexture) refers to geometry.o(.text) for Coordinates::GetRect()
    main.o(t._ZN12Bitmap_ClassI6ScreenE13NewBitmapOpenER8tTexture) refers to main.o(t._ZN7Frame2DIsEclE3b2DPt) for Frame2D<short>::operator ()(b2D, unsigned short*)
    main.o(.ARM.exidx) refers to main.o(t._ZN12Bitmap_ClassI6ScreenE13NewBitmapOpenER8tTexture) for t._ZN12Bitmap_ClassI6ScreenE13NewBitmapOpenER8tTexture
    main.o(t._ZN12Bitmap_ClassI6ScreenE4FillI8tTextureEEiPT_t) refers to locker.o(.text) for Locker::Test()
    main.o(.ARM.exidx) refers to main.o(t._ZN12Bitmap_ClassI6ScreenE4FillI8tTextureEEiPT_t) for t._ZN12Bitmap_ClassI6ScreenE4FillI8tTextureEEiPT_t
    main.o(t._ZN10Fill_ClassI6ScreenE4FillEt) refers to locker.o(.text) for Locker::Test()
    main.o(.ARM.exidx) refers to main.o(t._ZN10Fill_ClassI6ScreenE4FillEt) for t._ZN10Fill_ClassI6ScreenE4FillEt
    main.o(.ARM.exidx) refers to main.o(t._ZN11Print_ClassI6ScreenE7UseFontEPK5tFont) for t._ZN11Print_ClassI6ScreenE7UseFontEPK5tFont
    main.o(.ARM.exidx) refers to main.o(t._ZN7Frame2DIsEclE3b2D) for t._ZN7Frame2DIsEclE3b2D
    main.o(.ARM.exidx) refers to main.o(t._ZN13List_IteratorI7Frame2DIsEEplERS1_) for t._ZN13List_IteratorI7Frame2DIsEEplERS1_
    main.o(t._ZN13List_IteratorI7Frame2DIsEEplEPS1_) refers to main.o(t._ZN13List_IteratorI7Frame2DIsEEplERS1_) for List_Iterator<Frame2D<short>>::operator +(Frame2D<short>&)
    main.o(.ARM.exidx) refers to main.o(t._ZN13List_IteratorI7Frame2DIsEEplEPS1_) for t._ZN13List_IteratorI7Frame2DIsEEplEPS1_
    main.o(t._ZN9AllocatorI7Frame2DIsEE3NewEj) refers to device.o(.text) for Alloc(unsigned)
    main.o(.ARM.exidx) refers to main.o(t._ZN9AllocatorI7Frame2DIsEE3NewEj) for t._ZN9AllocatorI7Frame2DIsEE3NewEj
    main.o(t._ZN14Frame2DManagerIsE6CreateE3b2D) refers to main.o(t._ZN9AllocatorI7Frame2DIsEE3NewEj) for Allocator<Frame2D<short>>::New(unsigned)
    main.o(t._ZN14Frame2DManagerIsE6CreateE3b2D) refers to main.o(t._ZN13List_IteratorI7Frame2DIsEEplEPS1_) for List_Iterator<Frame2D<short>>::operator +(Frame2D<short>*)
    main.o(t._ZN14Frame2DManagerIsE6CreateE3b2D) refers to main.o(t._ZN7Frame2DIsEclE3b2D) for Frame2D<short>::operator ()(b2D)
    main.o(.ARM.exidx) refers to main.o(t._ZN14Frame2DManagerIsE6CreateE3b2D) for t._ZN14Frame2DManagerIsE6CreateE3b2D
    main.o(.ARM.exidx) refers to main.o(t._ZN14Frame2DManagerIsEclEv) for t._ZN14Frame2DManagerIsEclEv
    main.o(.ARM.exidx) refers to main.o(t._ZN12Circle_ClassI6ScreenE5PointEiiiit) for t._ZN12Circle_ClassI6ScreenE5PointEiiiit
    main.o(.ARM.exidx) refers to main.o(t._ZN12Circle_ClassI6ScreenE3SqrEi) for t._ZN12Circle_ClassI6ScreenE3SqrEi
    main.o(.ARM.exidx) refers to main.o(t._ZN12Circle_ClassI6ScreenE5PixelEjjt) for t._ZN12Circle_ClassI6ScreenE5PixelEjjt
    main.o(t._ZN12Circle_ClassI6ScreenE4DrawE3b2Dft) refers to locker.o(.text) for Locker::Test()
    main.o(t._ZN12Circle_ClassI6ScreenE4DrawE3b2Dft) refers to geometry.o(.text) for Coordinates::Trunc(b2D*)
    main.o(t._ZN12Circle_ClassI6ScreenE4DrawE3b2Dft) refers to main.o(t._ZN12Circle_ClassI6ScreenE3SqrEi) for Circle_Class<Screen>::Sqr(int)
    main.o(t._ZN12Circle_ClassI6ScreenE4DrawE3b2Dft) refers to main.o(t._ZN12Circle_ClassI6ScreenE5PixelEjjt) for Circle_Class<Screen>::Pixel(unsigned, unsigned, unsigned short)
    main.o(t._ZN12Circle_ClassI6ScreenE4DrawE3b2Dft) refers to main.o(t._ZN12Circle_ClassI6ScreenE5PointEiiiit) for Circle_Class<Screen>::Point(int, int, int, int, unsigned short)
    main.o(.ARM.exidx) refers to main.o(t._ZN12Circle_ClassI6ScreenE4DrawE3b2Dft) for t._ZN12Circle_ClassI6ScreenE4DrawE3b2Dft
    main.o(t._ZN12Circle_ClassI6ScreenE4DrawEssft) refers to main.o(t._ZN12Circle_ClassI6ScreenE4DrawE3b2Dft) for Circle_Class<Screen>::Draw(b2D, float, unsigned short)
    main.o(.ARM.exidx) refers to main.o(t._ZN12Circle_ClassI6ScreenE4DrawEssft) for t._ZN12Circle_ClassI6ScreenE4DrawEssft
    main.o(.constdata__ZTIN6Physic11Ball2DGroupE) refers to lib_rtti_impl.o(.constdata__ZTVN10__cxxabiv120__si_class_type_infoE) for vtable for __cxxabiv1::__si_class_type_info
    main.o(.constdata__ZTIN6Physic11Ball2DGroupE) refers to main.o(.constdata__ZTSN6Physic11Ball2DGroupE) for typeinfo name for Physic::Ball2DGroup
    main.o(.constdata__ZTIN6Physic11Ball2DGroupE) refers to main.o(.constdata__ZTI9AllocatorIN6Physic6Ball2DEE) for typeinfo for Allocator<Physic::Ball2D>
    main.o(.constdata__ZTI9AllocatorIN6Physic6Ball2DEE) refers to lib_rtti_impl.o(.constdata__ZTVN10__cxxabiv117__class_type_infoE) for vtable for __cxxabiv1::__class_type_info
    main.o(.constdata__ZTI9AllocatorIN6Physic6Ball2DEE) refers to main.o(.constdata__ZTS9AllocatorIN6Physic6Ball2DEE) for typeinfo name for Allocator<Physic::Ball2D>
    screen.o(t._ZN9AllocatorIvE3NewI4NodeI6ScreenhEEEPT_v) refers to device.o(.text) for Alloc(unsigned)
    screen.o(.ARM.exidx) refers to screen.o(t._ZN9AllocatorIvE3NewI4NodeI6ScreenhEEEPT_v) for t._ZN9AllocatorIvE3NewI4NodeI6ScreenhEEEPT_v
    screen.o(.ARM.exidx) refers to screen.o(t._ZN7Frame2DIsE4GetHEv) for t._ZN7Frame2DIsE4GetHEv
    screen.o(.ARM.exidx) refers to screen.o(t._ZN7Frame2DIsE7GetBuffEv) for t._ZN7Frame2DIsE7GetBuffEv
    screen.o(t._ZN9AllocatorI6ScreenE3NewEv) refers to device.o(.text) for Alloc(unsigned)
    screen.o(.ARM.exidx) refers to screen.o(t._ZN9AllocatorI6ScreenE3NewEv) for t._ZN9AllocatorI6ScreenE3NewEv
    screen.o(t._ZN9AllocatorI6ScreenE3NewI8tTextureEEPT_j) refers to device.o(.text) for Alloc(unsigned)
    screen.o(.ARM.exidx) refers to screen.o(t._ZN9AllocatorI6ScreenE3NewI8tTextureEEPT_j) for t._ZN9AllocatorI6ScreenE3NewI8tTextureEEPT_j
    screen.o(t._ZN9AllocatorI6ScreenE6DeleteI8tTextureEEiPT_) refers to device.o(.text) for Free(void*)
    screen.o(.ARM.exidx) refers to screen.o(t._ZN9AllocatorI6ScreenE6DeleteI8tTextureEEiPT_) for t._ZN9AllocatorI6ScreenE6DeleteI8tTextureEEiPT_
    screen.o(t._ZN10Screen_ObjI6ScreenEclERS0_) refers to screen.o(t._ZN7Frame2DIsE4GetHEv) for Frame2D<short>::GetH()
    screen.o(t._ZN10Screen_ObjI6ScreenEclERS0_) refers to screen.o(t._ZN7Frame2DIsE7GetBuffEv) for Frame2D<short>::GetBuff()
    screen.o(.ARM.exidx) refers to screen.o(t._ZN10Screen_ObjI6ScreenEclERS0_) for t._ZN10Screen_ObjI6ScreenEclERS0_
    screen.o(.ARM.exidx) refers to screen.o(t._ZN10Fill_ClassI6ScreenEC1Ev) for t._ZN10Fill_ClassI6ScreenEC1Ev
    screen.o(.ARM.exidx) refers to screen.o(t._ZN12Bitmap_ClassI6ScreenEC1Ev) for t._ZN12Bitmap_ClassI6ScreenEC1Ev
    screen.o(.ARM.exidx) refers to screen.o(t._ZN12Circle_ClassI6ScreenEC1Ev) for t._ZN12Circle_ClassI6ScreenEC1Ev
    screen.o(.ARM.exidx) refers to screen.o(t._ZN10Line_ClassI6ScreenEC1Ev) for t._ZN10Line_ClassI6ScreenEC1Ev
    screen.o(.ARM.exidx) refers to screen.o(t._ZN10Line_ClassI6ScreenE4InitEv) for t._ZN10Line_ClassI6ScreenE4InitEv
    screen.o(.ARM.exidx) refers to screen.o(t._ZN15Rectangle_ClassI6ScreenEC1Ev) for t._ZN15Rectangle_ClassI6ScreenEC1Ev
    screen.o(.ARM.exidx) refers to screen.o(t._ZN15Rectangle_ClassI6ScreenE4InitEv) for t._ZN15Rectangle_ClassI6ScreenE4InitEv
    screen.o(.ARM.exidx) refers to screen.o(t._ZN11Print_ClassI6ScreenEC1Ev) for t._ZN11Print_ClassI6ScreenEC1Ev
    screen.o(t._ZN11Print_ClassI6ScreenE4InitEv) refers to geometry.o(.text) for Coordinates::GetRect()
    screen.o(.ARM.exidx) refers to screen.o(t._ZN11Print_ClassI6ScreenE4InitEv) for t._ZN11Print_ClassI6ScreenE4InitEv
    screen.o(.ARM.exidx) refers to screen.o(t._ZN13List_IteratorI4NodeI6ScreenhEEC1Ev) for t._ZN13List_IteratorI4NodeI6ScreenhEEC1Ev
    screen.o(.ARM.exidx) refers to screen.o(t._ZN13List_IteratorI4NodeI6ScreenhEEplERS2_) for t._ZN13List_IteratorI4NodeI6ScreenhEEplERS2_
    screen.o(t._ZN13List_IteratorI4NodeI6ScreenhEEplEPS2_) refers to screen.o(t._ZN13List_IteratorI4NodeI6ScreenhEEplERS2_) for List_Iterator<Node<Screen, unsigned char>>::operator +(Node<Screen, unsigned char>&)
    screen.o(.ARM.exidx) refers to screen.o(t._ZN13List_IteratorI4NodeI6ScreenhEEplEPS2_) for t._ZN13List_IteratorI4NodeI6ScreenhEEplEPS2_
    screen.o(t._ZN10List_OrderI6ScreenhEplERS0_) refers to screen.o(t._ZN9AllocatorIvE3NewI4NodeI6ScreenhEEEPT_v) for T1* Allocator<void>::New<Node<Screen, unsigned char>>()
    screen.o(t._ZN10List_OrderI6ScreenhEplERS0_) refers to screen.o(t._ZN13List_IteratorI4NodeI6ScreenhEEplEPS2_) for List_Iterator<Node<Screen, unsigned char>>::operator +(Node<Screen, unsigned char>*)
    screen.o(.ARM.exidx) refers to screen.o(t._ZN10List_OrderI6ScreenhEplERS0_) for t._ZN10List_OrderI6ScreenhEplERS0_
    screen.o(t._ZN10List_OrderI6ScreenhEplEPS0_) refers to screen.o(t._ZN10List_OrderI6ScreenhEplERS0_) for List_Order<Screen, unsigned char>::operator +(Screen&)
    screen.o(.ARM.exidx) refers to screen.o(t._ZN10List_OrderI6ScreenhEplEPS0_) for t._ZN10List_OrderI6ScreenhEplEPS0_
    screen.o(t._ZN10List_OrderI6ScreenhEC1Ev) refers to screen.o(t._ZN13List_IteratorI4NodeI6ScreenhEEC1Ev) for List_Iterator<Node<Screen, unsigned char>>::List_Iterator()
    screen.o(.ARM.exidx) refers to screen.o(t._ZN10List_OrderI6ScreenhEC1Ev) for t._ZN10List_OrderI6ScreenhEC1Ev
    tftili9486.o(.ARM.exidx) refers to tftili9486.o(t._ZN7Frame2DIsE7GetRectEv) for t._ZN7Frame2DIsE7GetRectEv
    device.o(.constdata__ZTV12LcdDriverDef) refers to device.o(.constdata__ZTI12LcdDriverDef) for typeinfo for LcdDriverDef
    device.o(.constdata__ZTV12LcdDriverDef) refers to device.o(.text) for LcdDriverDef::ExtInput(b2D, unsigned)
    device.o(.ARM.exidx) refers to device.o(t._ZN13List_IteratorI11MemoryChunkEC1Ev) for t._ZN13List_IteratorI11MemoryChunkEC1Ev
    device.o(.ARM.exidx) refers to device.o(t._ZN10List_OrderI6ScreenhED1Ev) for t._ZN10List_OrderI6ScreenhED1Ev
    device.o(.ARM.exidx) refers to device.o(t._ZN14Frame2DManagerIsEC1Ev) for t._ZN14Frame2DManagerIsEC1Ev
    device.o(i._ZN13ScreenManagerD1Ev) refers to device.o(t._ZN10List_OrderI6ScreenhED1Ev) for List_Order<Screen, unsigned char>::~List_Order()
    device.o(.ARM.exidx) refers to device.o(i._ZN13ScreenManagerD1Ev) for i._ZN13ScreenManagerD1Ev
    device.o(.constdata__ZTI12LcdDriverDef) refers to lib_rtti_impl.o(.constdata__ZTVN10__cxxabiv117__class_type_infoE) for vtable for __cxxabiv1::__class_type_info
    device.o(.constdata__ZTI12LcdDriverDef) refers to device.o(.constdata__ZTS12LcdDriverDef) for typeinfo name for LcdDriverDef
    physic.o(t._ZN9AllocatorIvE3NewI4NodeIN6Physic8DustPartEfEEEPT_v) refers to device.o(.text) for Alloc(unsigned)
    physic.o(.ARM.exidx) refers to physic.o(t._ZN9AllocatorIvE3NewI4NodeIN6Physic8DustPartEfEEEPT_v) for t._ZN9AllocatorIvE3NewI4NodeIN6Physic8DustPartEfEEEPT_v
    physic.o(t._ZN9AllocatorIN6Physic6Ball2DEE3NewEv) refers to device.o(.text) for Alloc(unsigned)
    physic.o(.ARM.exidx) refers to physic.o(t._ZN9AllocatorIN6Physic6Ball2DEE3NewEv) for t._ZN9AllocatorIN6Physic6Ball2DEE3NewEv
    physic.o(t._ZN9AllocatorIN6Physic6Ball2DEE9NewlArrayEj) refers to device.o(.text) for Alloc(unsigned)
    physic.o(.ARM.exidx) refers to physic.o(t._ZN9AllocatorIN6Physic6Ball2DEE9NewlArrayEj) for t._ZN9AllocatorIN6Physic6Ball2DEE9NewlArrayEj
    physic.o(t._ZN9AllocatorIN6Physic6Ball2DEE3NewI6lArrayIS1_EEEPT_v) refers to device.o(.text) for Alloc(unsigned)
    physic.o(.ARM.exidx) refers to physic.o(t._ZN9AllocatorIN6Physic6Ball2DEE3NewI6lArrayIS1_EEEPT_v) for t._ZN9AllocatorIN6Physic6Ball2DEE3NewI6lArrayIS1_EEEPT_v
    physic.o(t._ZN9AllocatorIN6Physic6Ball2DEE6DeleteIPS1_EEiPT_) refers to device.o(.text) for Free(void*)
    physic.o(.ARM.exidx) refers to physic.o(t._ZN9AllocatorIN6Physic6Ball2DEE6DeleteIPS1_EEiPT_) for t._ZN9AllocatorIN6Physic6Ball2DEE6DeleteIPS1_EEiPT_
    physic.o(t._ZN9AllocatorIN6Physic6Ball2DEE6DeleteI6lArrayIS1_EEEiPT_) refers to device.o(.text) for Free(void*)
    physic.o(.ARM.exidx) refers to physic.o(t._ZN9AllocatorIN6Physic6Ball2DEE6DeleteI6lArrayIS1_EEEiPT_) for t._ZN9AllocatorIN6Physic6Ball2DEE6DeleteI6lArrayIS1_EEEiPT_
    physic.o(.ARM.exidx) refers to physic.o(t._ZN13List_IteratorIN6Physic6Ball2DEEC1Ev) for t._ZN13List_IteratorIN6Physic6Ball2DEEC1Ev
    physic.o(.ARM.exidx) refers to physic.o(t._ZN13List_IteratorIN6Physic6Ball2DEEplERS1_) for t._ZN13List_IteratorIN6Physic6Ball2DEEplERS1_
    physic.o(.ARM.exidx) refers to physic.o(t._ZN13List_IteratorIN6Physic6Ball2DEEmiERS1_) for t._ZN13List_IteratorIN6Physic6Ball2DEEmiERS1_
    physic.o(t._ZN13List_IteratorIN6Physic6Ball2DEEplEPS1_) refers to physic.o(t._ZN13List_IteratorIN6Physic6Ball2DEEplERS1_) for List_Iterator<Physic::Ball2D>::operator +(Physic::Ball2D&)
    physic.o(.ARM.exidx) refers to physic.o(t._ZN13List_IteratorIN6Physic6Ball2DEEplEPS1_) for t._ZN13List_IteratorIN6Physic6Ball2DEEplEPS1_
    physic.o(t._ZN13List_IteratorIN6Physic6Ball2DEEmiEPS1_) refers to physic.o(t._ZN13List_IteratorIN6Physic6Ball2DEEmiERS1_) for List_Iterator<Physic::Ball2D>::operator -(Physic::Ball2D&)
    physic.o(.ARM.exidx) refers to physic.o(t._ZN13List_IteratorIN6Physic6Ball2DEEmiEPS1_) for t._ZN13List_IteratorIN6Physic6Ball2DEEmiEPS1_
    physic.o(.ARM.exidx) refers to physic.o(t._ZN13List_IteratorIN6Physic6Ball2DEE3GetEj) for t._ZN13List_IteratorIN6Physic6Ball2DEE3GetEj
    physic.o(.ARM.exidx) refers to physic.o(t._ZN13List_IteratorIN6Physic6Ball2DEE8GetFirstEv) for t._ZN13List_IteratorIN6Physic6Ball2DEE8GetFirstEv
    physic.o(.ARM.exidx) refers to physic.o(t._ZN13List_IteratorIN6Physic6Ball2DEE7GetNextEPS1_) for t._ZN13List_IteratorIN6Physic6Ball2DEE7GetNextEPS1_
    physic.o(.ARM.exidx) refers to physic.o(t._ZN13List_IteratorIN6Physic6Ball2DEE7ContainEv) for t._ZN13List_IteratorIN6Physic6Ball2DEE7ContainEv
    physic.o(.ARM.exidx) refers to physic.o(t._ZN6lArrayIN6Physic6Ball2DEEixEj) for t._ZN6lArrayIN6Physic6Ball2DEEixEj
    physic.o(t._ZN13List_IteratorIN6Physic6Ball2DEE5ArrayI6lArrayIS1_EEERS2_RT_j) refers to physic.o(t._ZN6lArrayIN6Physic6Ball2DEEixEj) for lArray<Physic::Ball2D>::operator [](unsigned)
    physic.o(t._ZN13List_IteratorIN6Physic6Ball2DEE5ArrayI6lArrayIS1_EEERS2_RT_j) refers to physic.o(t._ZN13List_IteratorIN6Physic6Ball2DEEplEPS1_) for List_Iterator<Physic::Ball2D>::operator +(Physic::Ball2D*)
    physic.o(.ARM.exidx) refers to physic.o(t._ZN13List_IteratorIN6Physic6Ball2DEE5ArrayI6lArrayIS1_EEERS2_RT_j) for t._ZN13List_IteratorIN6Physic6Ball2DEE5ArrayI6lArrayIS1_EEERS2_RT_j
    physic.o(t._ZN13List_IteratorIN6Physic6Ball2DEE5ArrayI6lArrayIS1_EEERS2_PT_j) refers to physic.o(t._ZN13List_IteratorIN6Physic6Ball2DEE5ArrayI6lArrayIS1_EEERS2_RT_j) for List_Iterator<Physic::Ball2D>& List_Iterator<Physic::Ball2D>::Array<lArray<Physic::Ball2D>>(T1&, unsigned)
    physic.o(.ARM.exidx) refers to physic.o(t._ZN13List_IteratorIN6Physic6Ball2DEE5ArrayI6lArrayIS1_EEERS2_PT_j) for t._ZN13List_IteratorIN6Physic6Ball2DEE5ArrayI6lArrayIS1_EEERS2_PT_j
    physic.o(t._ZN9AllocatorIN6Physic8DustPartEE3NewEv) refers to device.o(.text) for Alloc(unsigned)
    physic.o(.ARM.exidx) refers to physic.o(t._ZN9AllocatorIN6Physic8DustPartEE3NewEv) for t._ZN9AllocatorIN6Physic8DustPartEE3NewEv
    physic.o(.ARM.exidx) refers to physic.o(t._ZN13List_IteratorI4NodeIN6Physic8DustPartEfEEC1Ev) for t._ZN13List_IteratorI4NodeIN6Physic8DustPartEfEEC1Ev
    physic.o(.ARM.exidx) refers to physic.o(t._ZN13List_IteratorI4NodeIN6Physic8DustPartEfEEplERS3_) for t._ZN13List_IteratorI4NodeIN6Physic8DustPartEfEEplERS3_
    physic.o(t._ZN13List_IteratorI4NodeIN6Physic8DustPartEfEEplEPS3_) refers to physic.o(t._ZN13List_IteratorI4NodeIN6Physic8DustPartEfEEplERS3_) for List_Iterator<Node<Physic::DustPart, float>>::operator +(Node<Physic::DustPart, float>&)
    physic.o(.ARM.exidx) refers to physic.o(t._ZN13List_IteratorI4NodeIN6Physic8DustPartEfEEplEPS3_) for t._ZN13List_IteratorI4NodeIN6Physic8DustPartEfEEplEPS3_
    physic.o(.ARM.exidx) refers to physic.o(t._ZN13List_IteratorI4NodeIN6Physic8DustPartEfEE8GetFirstEv) for t._ZN13List_IteratorI4NodeIN6Physic8DustPartEfEE8GetFirstEv
    physic.o(t._ZN10List_OrderIN6Physic8DustPartEfEplERS1_) refers to physic.o(t._ZN9AllocatorIvE3NewI4NodeIN6Physic8DustPartEfEEEPT_v) for T1* Allocator<void>::New<Node<Physic::DustPart, float>>()
    physic.o(t._ZN10List_OrderIN6Physic8DustPartEfEplERS1_) refers to physic.o(t._ZN13List_IteratorI4NodeIN6Physic8DustPartEfEEplEPS3_) for List_Iterator<Node<Physic::DustPart, float>>::operator +(Node<Physic::DustPart, float>*)
    physic.o(.ARM.exidx) refers to physic.o(t._ZN10List_OrderIN6Physic8DustPartEfEplERS1_) for t._ZN10List_OrderIN6Physic8DustPartEfEplERS1_
    physic.o(t._ZN10List_OrderIN6Physic8DustPartEfE5BeginEv) refers to physic.o(t._ZN13List_IteratorI4NodeIN6Physic8DustPartEfEE8GetFirstEv) for List_Iterator<Node<Physic::DustPart, float>>::GetFirst()
    physic.o(.ARM.exidx) refers to physic.o(t._ZN10List_OrderIN6Physic8DustPartEfE5BeginEv) for t._ZN10List_OrderIN6Physic8DustPartEfE5BeginEv
    physic.o(t._ZN10List_OrderIN6Physic8DustPartEfEC1Ev) refers to physic.o(t._ZN13List_IteratorI4NodeIN6Physic8DustPartEfEEC1Ev) for List_Iterator<Node<Physic::DustPart, float>>::List_Iterator()
    physic.o(.ARM.exidx) refers to physic.o(t._ZN10List_OrderIN6Physic8DustPartEfEC1Ev) for t._ZN10List_OrderIN6Physic8DustPartEfEC1Ev
    physic.o(.ARM.exidx) refers to physic.o(t._ZN10List_OrderIN6Physic8DustPartEfED1Ev) for t._ZN10List_OrderIN6Physic8DustPartEfED1Ev
    physic.o(t._ZN6lArrayIN6Physic6Ball2DEEclEj) refers to physic.o(t._ZN9AllocatorIN6Physic6Ball2DEE9NewlArrayEj) for Allocator<Physic::Ball2D>::NewlArray(unsigned)
    physic.o(.ARM.exidx) refers to physic.o(t._ZN6lArrayIN6Physic6Ball2DEEclEj) for t._ZN6lArrayIN6Physic6Ball2DEEclEj
    physic.o(.ARM.exidx) refers to physic.o(t._ZN6lArrayIN6Physic6Ball2DEE3AddEPS1_j) for t._ZN6lArrayIN6Physic6Ball2DEE3AddEPS1_j
    physic.o(t._ZN6lArrayIN6Physic6Ball2DEED1Ev) refers to physic.o(t._ZN9AllocatorIN6Physic6Ball2DEE6DeleteIPS1_EEiPT_) for int Allocator<Physic::Ball2D>::Delete<Physic::Ball2D*>(T1*)
    physic.o(t._ZN6lArrayIN6Physic6Ball2DEED1Ev) refers to physic.o(t._ZN9AllocatorIN6Physic6Ball2DEE6DeleteI6lArrayIS1_EEEiPT_) for int Allocator<Physic::Ball2D>::Delete<lArray<Physic::Ball2D>>(T1*)
    physic.o(.ARM.exidx) refers to physic.o(t._ZN6lArrayIN6Physic6Ball2DEED1Ev) for t._ZN6lArrayIN6Physic6Ball2DEED1Ev
    physic.o(t._ZN7storage3MapILi2EN6Physic8DustPartEfEC1Ev) refers to aeabi_vec_ctor_nocookie_nodtor.o(i.__aeabi_vec_ctor_nocookie_nodtor) for __aeabi_vec_ctor_nocookie_nodtor
    physic.o(t._ZN7storage3MapILi2EN6Physic8DustPartEfEC1Ev) refers to physic.o(t._ZN10List_OrderIN6Physic8DustPartEfEC1Ev) for List_Order<Physic::DustPart, float>::List_Order()
    physic.o(.ARM.exidx) refers to physic.o(t._ZN7storage3MapILi2EN6Physic8DustPartEfEC1Ev) for t._ZN7storage3MapILi2EN6Physic8DustPartEfEC1Ev
    physic.o(t._ZN7storage3MapILi2EN6Physic8DustPartEfEplERS2_) refers to physic.o(t._ZN10List_OrderIN6Physic8DustPartEfEplERS1_) for List_Order<Physic::DustPart, float>::operator +(Physic::DustPart&)
    physic.o(.ARM.exidx) refers to physic.o(t._ZN7storage3MapILi2EN6Physic8DustPartEfEplERS2_) for t._ZN7storage3MapILi2EN6Physic8DustPartEfEplERS2_
    physic.o(t._ZN7storage3MapILi2EN6Physic8DustPartEfEplEPS2_) refers to physic.o(t._ZN7storage3MapILi2EN6Physic8DustPartEfEplERS2_) for storage::Map<(int)2, Physic::DustPart, float>::operator +(Physic::DustPart&)
    physic.o(.ARM.exidx) refers to physic.o(t._ZN7storage3MapILi2EN6Physic8DustPartEfEplEPS2_) for t._ZN7storage3MapILi2EN6Physic8DustPartEfEplEPS2_
    physic.o(t._ZN7storage3MapILi2EN6Physic8DustPartEfE5BeginEv) refers to physic.o(t._ZN10List_OrderIN6Physic8DustPartEfE5BeginEv) for List_Order<Physic::DustPart, float>::Begin()
    physic.o(.ARM.exidx) refers to physic.o(t._ZN7storage3MapILi2EN6Physic8DustPartEfE5BeginEv) for t._ZN7storage3MapILi2EN6Physic8DustPartEfE5BeginEv
    physic.o(i._ZN7storage3MapILi2EN6Physic8DustPartEfED1Ev) refers to aeabi_vec_dtor_noexceptions.o(.text) for __aeabi_vec_dtor
    physic.o(i._ZN7storage3MapILi2EN6Physic8DustPartEfED1Ev) refers to physic.o(t._ZN10List_OrderIN6Physic8DustPartEfED1Ev) for List_Order<Physic::DustPart, float>::~List_Order()
    physic.o(.ARM.exidx) refers to physic.o(i._ZN7storage3MapILi2EN6Physic8DustPartEfED1Ev) for i._ZN7storage3MapILi2EN6Physic8DustPartEfED1Ev
    memory_alloc.o(.ARM.exidx) refers to memory_alloc.o(t._ZN13List_IteratorI11MemoryChunkEplERS0_) for t._ZN13List_IteratorI11MemoryChunkEplERS0_
    memory_alloc.o(.ARM.exidx) refers to memory_alloc.o(t._ZN13List_IteratorI11MemoryChunkEmiERS0_) for t._ZN13List_IteratorI11MemoryChunkEmiERS0_
    memory_alloc.o(t._ZN13List_IteratorI11MemoryChunkEplEPS0_) refers to memory_alloc.o(t._ZN13List_IteratorI11MemoryChunkEplERS0_) for List_Iterator<MemoryChunk>::operator +(MemoryChunk&)
    memory_alloc.o(.ARM.exidx) refers to memory_alloc.o(t._ZN13List_IteratorI11MemoryChunkEplEPS0_) for t._ZN13List_IteratorI11MemoryChunkEplEPS0_
    memory_alloc.o(t._ZN13List_IteratorI11MemoryChunkEmiEPS0_) refers to memory_alloc.o(t._ZN13List_IteratorI11MemoryChunkEmiERS0_) for List_Iterator<MemoryChunk>::operator -(MemoryChunk&)
    memory_alloc.o(.ARM.exidx) refers to memory_alloc.o(t._ZN13List_IteratorI11MemoryChunkEmiEPS0_) for t._ZN13List_IteratorI11MemoryChunkEmiEPS0_
    memory_alloc.o(.ARM.exidx) refers to memory_alloc.o(t._ZN13List_IteratorI11MemoryChunkE3GetEj) for t._ZN13List_IteratorI11MemoryChunkE3GetEj
    memory_alloc.o(.ARM.exidx) refers to memory_alloc.o(t._ZN13List_IteratorI11MemoryChunkE7GetLastEv) for t._ZN13List_IteratorI11MemoryChunkE7GetLastEv
    memory_alloc.o(.ARM.exidx) refers to memory_alloc.o(t._ZN13List_IteratorI11MemoryChunkE8GetFirstEv) for t._ZN13List_IteratorI11MemoryChunkE8GetFirstEv
    memory_alloc.o(.ARM.exidx) refers to memory_alloc.o(t._ZN13List_IteratorI11MemoryChunkE7ContainEv) for t._ZN13List_IteratorI11MemoryChunkE7ContainEv
    memory_alloc.o(t._ZN13List_IteratorI11MemoryChunkE6RemoveEPS0_) refers to memory_alloc.o(t._ZN13List_IteratorI11MemoryChunkE7ContainEv) for List_Iterator<MemoryChunk>::Contain()
    memory_alloc.o(t._ZN13List_IteratorI11MemoryChunkE6RemoveEPS0_) refers to memory_alloc.o(t._ZN13List_IteratorI11MemoryChunkEmiEPS0_) for List_Iterator<MemoryChunk>::operator -(MemoryChunk*)
    memory_alloc.o(.ARM.exidx) refers to memory_alloc.o(t._ZN13List_IteratorI11MemoryChunkE6RemoveEPS0_) for t._ZN13List_IteratorI11MemoryChunkE6RemoveEPS0_
    lib_rtti_impl.o(.constdata__ZTVN10__cxxabiv123__fundamental_type_infoE) refers to lib_rtti_impl.o(.constdata__ZTIN10__cxxabiv123__fundamental_type_infoE) for typeinfo for __cxxabiv1::__fundamental_type_info
    lib_rtti_impl.o(.constdata__ZTVN10__cxxabiv123__fundamental_type_infoE) refers to lib_rtti_impl.o(i._ZN10__cxxabiv123__fundamental_type_infoD1Ev) for __cxxabiv1::__fundamental_type_info::~__fundamental_type_info()
    lib_rtti_impl.o(.constdata__ZTVN10__cxxabiv123__fundamental_type_infoE) refers to lib_rtti_impl.o(i._ZN10__cxxabiv123__fundamental_type_infoD0Ev) for __cxxabiv1::__fundamental_type_info::~__fundamental_type_info__deallocating()
    lib_rtti_impl.o(.constdata__ZTVN10__cxxabiv117__array_type_infoE) refers to lib_rtti_impl.o(.constdata__ZTIN10__cxxabiv117__array_type_infoE) for typeinfo for __cxxabiv1::__array_type_info
    lib_rtti_impl.o(.constdata__ZTVN10__cxxabiv117__array_type_infoE) refers to lib_rtti_impl.o(i._ZN10__cxxabiv117__array_type_infoD1Ev) for __cxxabiv1::__array_type_info::~__array_type_info()
    lib_rtti_impl.o(.constdata__ZTVN10__cxxabiv117__array_type_infoE) refers to lib_rtti_impl.o(i._ZN10__cxxabiv117__array_type_infoD0Ev) for __cxxabiv1::__array_type_info::~__array_type_info__deallocating()
    lib_rtti_impl.o(.constdata__ZTVN10__cxxabiv120__function_type_infoE) refers to lib_rtti_impl.o(.constdata__ZTIN10__cxxabiv120__function_type_infoE) for typeinfo for __cxxabiv1::__function_type_info
    lib_rtti_impl.o(.constdata__ZTVN10__cxxabiv120__function_type_infoE) refers to lib_rtti_impl.o(i._ZN10__cxxabiv120__function_type_infoD1Ev) for __cxxabiv1::__function_type_info::~__function_type_info()
    lib_rtti_impl.o(.constdata__ZTVN10__cxxabiv120__function_type_infoE) refers to lib_rtti_impl.o(i._ZN10__cxxabiv120__function_type_infoD0Ev) for __cxxabiv1::__function_type_info::~__function_type_info__deallocating()
    lib_rtti_impl.o(.constdata__ZTVN10__cxxabiv116__enum_type_infoE) refers to lib_rtti_impl.o(.constdata__ZTIN10__cxxabiv116__enum_type_infoE) for typeinfo for __cxxabiv1::__enum_type_info
    lib_rtti_impl.o(.constdata__ZTVN10__cxxabiv116__enum_type_infoE) refers to lib_rtti_impl.o(i._ZN10__cxxabiv116__enum_type_infoD1Ev) for __cxxabiv1::__enum_type_info::~__enum_type_info()
    lib_rtti_impl.o(.constdata__ZTVN10__cxxabiv116__enum_type_infoE) refers to lib_rtti_impl.o(i._ZN10__cxxabiv116__enum_type_infoD0Ev) for __cxxabiv1::__enum_type_info::~__enum_type_info__deallocating()
    lib_rtti_impl.o(.constdata__ZTVN10__cxxabiv117__class_type_infoE) refers to lib_rtti_impl.o(.constdata__ZTIN10__cxxabiv117__class_type_infoE) for typeinfo for __cxxabiv1::__class_type_info
    lib_rtti_impl.o(.constdata__ZTVN10__cxxabiv117__class_type_infoE) refers to lib_rtti_impl.o(i._ZN10__cxxabiv117__class_type_infoD1Ev) for __cxxabiv1::__class_type_info::~__class_type_info()
    lib_rtti_impl.o(.constdata__ZTVN10__cxxabiv117__class_type_infoE) refers to lib_rtti_impl.o(i._ZN10__cxxabiv117__class_type_infoD0Ev) for __cxxabiv1::__class_type_info::~__class_type_info__deallocating()
    lib_rtti_impl.o(.constdata__ZTVN10__cxxabiv120__si_class_type_infoE) refers to lib_rtti_impl.o(.constdata__ZTIN10__cxxabiv120__si_class_type_infoE) for typeinfo for __cxxabiv1::__si_class_type_info
    lib_rtti_impl.o(.constdata__ZTVN10__cxxabiv120__si_class_type_infoE) refers to lib_rtti_impl.o(i._ZN10__cxxabiv120__si_class_type_infoD1Ev) for __cxxabiv1::__si_class_type_info::~__si_class_type_info()
    lib_rtti_impl.o(.constdata__ZTVN10__cxxabiv120__si_class_type_infoE) refers to lib_rtti_impl.o(i._ZN10__cxxabiv120__si_class_type_infoD0Ev) for __cxxabiv1::__si_class_type_info::~__si_class_type_info__deallocating()
    lib_rtti_impl.o(.constdata__ZTVN10__cxxabiv121__vmi_class_type_infoE) refers to lib_rtti_impl.o(.constdata__ZTIN10__cxxabiv121__vmi_class_type_infoE) for typeinfo for __cxxabiv1::__vmi_class_type_info
    lib_rtti_impl.o(.constdata__ZTVN10__cxxabiv121__vmi_class_type_infoE) refers to lib_rtti_impl.o(i._ZN10__cxxabiv121__vmi_class_type_infoD1Ev) for __cxxabiv1::__vmi_class_type_info::~__vmi_class_type_info()
    lib_rtti_impl.o(.constdata__ZTVN10__cxxabiv121__vmi_class_type_infoE) refers to lib_rtti_impl.o(i._ZN10__cxxabiv121__vmi_class_type_infoD0Ev) for __cxxabiv1::__vmi_class_type_info::~__vmi_class_type_info__deallocating()
    lib_rtti_impl.o(.constdata__ZTVN10__cxxabiv117__pbase_type_infoE) refers to lib_rtti_impl.o(.constdata__ZTIN10__cxxabiv117__pbase_type_infoE) for typeinfo for __cxxabiv1::__pbase_type_info
    lib_rtti_impl.o(.constdata__ZTVN10__cxxabiv117__pbase_type_infoE) refers to lib_rtti_impl.o(i._ZN10__cxxabiv117__pbase_type_infoD1Ev) for __cxxabiv1::__pbase_type_info::~__pbase_type_info()
    lib_rtti_impl.o(.constdata__ZTVN10__cxxabiv117__pbase_type_infoE) refers to lib_rtti_impl.o(i._ZN10__cxxabiv117__pbase_type_infoD0Ev) for __cxxabiv1::__pbase_type_info::~__pbase_type_info__deallocating()
    lib_rtti_impl.o(.constdata__ZTVN10__cxxabiv119__pointer_type_infoE) refers to lib_rtti_impl.o(.constdata__ZTIN10__cxxabiv119__pointer_type_infoE) for typeinfo for __cxxabiv1::__pointer_type_info
    lib_rtti_impl.o(.constdata__ZTVN10__cxxabiv119__pointer_type_infoE) refers to lib_rtti_impl.o(i._ZN10__cxxabiv119__pointer_type_infoD1Ev) for __cxxabiv1::__pointer_type_info::~__pointer_type_info()
    lib_rtti_impl.o(.constdata__ZTVN10__cxxabiv119__pointer_type_infoE) refers to lib_rtti_impl.o(i._ZN10__cxxabiv119__pointer_type_infoD0Ev) for __cxxabiv1::__pointer_type_info::~__pointer_type_info__deallocating()
    lib_rtti_impl.o(.constdata__ZTVN10__cxxabiv129__pointer_to_member_type_infoE) refers to lib_rtti_impl.o(.constdata__ZTIN10__cxxabiv129__pointer_to_member_type_infoE) for typeinfo for __cxxabiv1::__pointer_to_member_type_info
    lib_rtti_impl.o(.constdata__ZTVN10__cxxabiv129__pointer_to_member_type_infoE) refers to lib_rtti_impl.o(i._ZN10__cxxabiv129__pointer_to_member_type_infoD1Ev) for __cxxabiv1::__pointer_to_member_type_info::~__pointer_to_member_type_info()
    lib_rtti_impl.o(.constdata__ZTVN10__cxxabiv129__pointer_to_member_type_infoE) refers to lib_rtti_impl.o(i._ZN10__cxxabiv129__pointer_to_member_type_infoD0Ev) for __cxxabiv1::__pointer_to_member_type_info::~__pointer_to_member_type_info__deallocating()
    lib_rtti_impl.o(.ARM.exidx) refers to lib_rtti_impl.o(i._ZNSt9type_infodlEPv) for i._ZNSt9type_infodlEPv
    lib_rtti_impl.o(.constdata__ZTIN10__cxxabiv123__fundamental_type_infoE) refers to lib_rtti_impl.o(.constdata__ZTVN10__cxxabiv120__si_class_type_infoE) for vtable for __cxxabiv1::__si_class_type_info
    lib_rtti_impl.o(.constdata__ZTIN10__cxxabiv123__fundamental_type_infoE) refers to lib_rtti_impl.o(.constdata__ZTSN10__cxxabiv123__fundamental_type_infoE) for typeinfo name for __cxxabiv1::__fundamental_type_info
    lib_rtti_impl.o(.constdata__ZTIN10__cxxabiv123__fundamental_type_infoE) refers to type_info_dtor.o(.constdata__ZTISt9type_info) for typeinfo for std::type_info
    lib_rtti_impl.o(.constdata__ZTIN10__cxxabiv117__array_type_infoE) refers to lib_rtti_impl.o(.constdata__ZTVN10__cxxabiv120__si_class_type_infoE) for vtable for __cxxabiv1::__si_class_type_info
    lib_rtti_impl.o(.constdata__ZTIN10__cxxabiv117__array_type_infoE) refers to lib_rtti_impl.o(.constdata__ZTSN10__cxxabiv117__array_type_infoE) for typeinfo name for __cxxabiv1::__array_type_info
    lib_rtti_impl.o(.constdata__ZTIN10__cxxabiv117__array_type_infoE) refers to type_info_dtor.o(.constdata__ZTISt9type_info) for typeinfo for std::type_info
    lib_rtti_impl.o(.constdata__ZTIN10__cxxabiv120__function_type_infoE) refers to lib_rtti_impl.o(.constdata__ZTVN10__cxxabiv120__si_class_type_infoE) for vtable for __cxxabiv1::__si_class_type_info
    lib_rtti_impl.o(.constdata__ZTIN10__cxxabiv120__function_type_infoE) refers to lib_rtti_impl.o(.constdata__ZTSN10__cxxabiv120__function_type_infoE) for typeinfo name for __cxxabiv1::__function_type_info
    lib_rtti_impl.o(.constdata__ZTIN10__cxxabiv120__function_type_infoE) refers to type_info_dtor.o(.constdata__ZTISt9type_info) for typeinfo for std::type_info
    lib_rtti_impl.o(.constdata__ZTIN10__cxxabiv116__enum_type_infoE) refers to lib_rtti_impl.o(.constdata__ZTVN10__cxxabiv120__si_class_type_infoE) for vtable for __cxxabiv1::__si_class_type_info
    lib_rtti_impl.o(.constdata__ZTIN10__cxxabiv116__enum_type_infoE) refers to lib_rtti_impl.o(.constdata__ZTSN10__cxxabiv116__enum_type_infoE) for typeinfo name for __cxxabiv1::__enum_type_info
    lib_rtti_impl.o(.constdata__ZTIN10__cxxabiv116__enum_type_infoE) refers to type_info_dtor.o(.constdata__ZTISt9type_info) for typeinfo for std::type_info
    lib_rtti_impl.o(.constdata__ZTIN10__cxxabiv117__class_type_infoE) refers to lib_rtti_impl.o(.constdata__ZTVN10__cxxabiv120__si_class_type_infoE) for vtable for __cxxabiv1::__si_class_type_info
    lib_rtti_impl.o(.constdata__ZTIN10__cxxabiv117__class_type_infoE) refers to lib_rtti_impl.o(.constdata__ZTSN10__cxxabiv117__class_type_infoE) for typeinfo name for __cxxabiv1::__class_type_info
    lib_rtti_impl.o(.constdata__ZTIN10__cxxabiv117__class_type_infoE) refers to type_info_dtor.o(.constdata__ZTISt9type_info) for typeinfo for std::type_info
    lib_rtti_impl.o(.constdata__ZTIN10__cxxabiv120__si_class_type_infoE) refers to lib_rtti_impl.o(.constdata__ZTVN10__cxxabiv120__si_class_type_infoE) for vtable for __cxxabiv1::__si_class_type_info
    lib_rtti_impl.o(.constdata__ZTIN10__cxxabiv120__si_class_type_infoE) refers to lib_rtti_impl.o(.constdata__ZTSN10__cxxabiv120__si_class_type_infoE) for typeinfo name for __cxxabiv1::__si_class_type_info
    lib_rtti_impl.o(.constdata__ZTIN10__cxxabiv120__si_class_type_infoE) refers to lib_rtti_impl.o(.constdata__ZTIN10__cxxabiv117__class_type_infoE) for typeinfo for __cxxabiv1::__class_type_info
    lib_rtti_impl.o(.constdata__ZTIN10__cxxabiv121__vmi_class_type_infoE) refers to lib_rtti_impl.o(.constdata__ZTVN10__cxxabiv120__si_class_type_infoE) for vtable for __cxxabiv1::__si_class_type_info
    lib_rtti_impl.o(.constdata__ZTIN10__cxxabiv121__vmi_class_type_infoE) refers to lib_rtti_impl.o(.constdata__ZTSN10__cxxabiv121__vmi_class_type_infoE) for typeinfo name for __cxxabiv1::__vmi_class_type_info
    lib_rtti_impl.o(.constdata__ZTIN10__cxxabiv121__vmi_class_type_infoE) refers to lib_rtti_impl.o(.constdata__ZTIN10__cxxabiv117__class_type_infoE) for typeinfo for __cxxabiv1::__class_type_info
    lib_rtti_impl.o(.constdata__ZTIN10__cxxabiv117__pbase_type_infoE) refers to lib_rtti_impl.o(.constdata__ZTVN10__cxxabiv120__si_class_type_infoE) for vtable for __cxxabiv1::__si_class_type_info
    lib_rtti_impl.o(.constdata__ZTIN10__cxxabiv117__pbase_type_infoE) refers to lib_rtti_impl.o(.constdata__ZTSN10__cxxabiv117__pbase_type_infoE) for typeinfo name for __cxxabiv1::__pbase_type_info
    lib_rtti_impl.o(.constdata__ZTIN10__cxxabiv117__pbase_type_infoE) refers to type_info_dtor.o(.constdata__ZTISt9type_info) for typeinfo for std::type_info
    lib_rtti_impl.o(.constdata__ZTIN10__cxxabiv119__pointer_type_infoE) refers to lib_rtti_impl.o(.constdata__ZTVN10__cxxabiv120__si_class_type_infoE) for vtable for __cxxabiv1::__si_class_type_info
    lib_rtti_impl.o(.constdata__ZTIN10__cxxabiv119__pointer_type_infoE) refers to lib_rtti_impl.o(.constdata__ZTSN10__cxxabiv119__pointer_type_infoE) for typeinfo name for __cxxabiv1::__pointer_type_info
    lib_rtti_impl.o(.constdata__ZTIN10__cxxabiv119__pointer_type_infoE) refers to lib_rtti_impl.o(.constdata__ZTIN10__cxxabiv117__pbase_type_infoE) for typeinfo for __cxxabiv1::__pbase_type_info
    lib_rtti_impl.o(.constdata__ZTIN10__cxxabiv129__pointer_to_member_type_infoE) refers to lib_rtti_impl.o(.constdata__ZTVN10__cxxabiv120__si_class_type_infoE) for vtable for __cxxabiv1::__si_class_type_info
    lib_rtti_impl.o(.constdata__ZTIN10__cxxabiv129__pointer_to_member_type_infoE) refers to lib_rtti_impl.o(.constdata__ZTSN10__cxxabiv129__pointer_to_member_type_infoE) for typeinfo name for __cxxabiv1::__pointer_to_member_type_info
    lib_rtti_impl.o(.constdata__ZTIN10__cxxabiv129__pointer_to_member_type_infoE) refers to lib_rtti_impl.o(.constdata__ZTIN10__cxxabiv117__pbase_type_infoE) for typeinfo for __cxxabiv1::__pbase_type_info
    lib_rtti_impl.o(i.__ARM_common_noexcept_landing) refers to arm_exceptions_callterm.o(.text) for __cxa_call_terminate
    lib_rtti_impl.o(.ARM.exidx) refers to lib_rtti_impl.o(i.__ARM_common_noexcept_landing) for i.__ARM_common_noexcept_landing
    type_info_dtor.o(.constdata__ZTVSt9type_info) refers to type_info_dtor.o(.constdata__ZTISt9type_info) for typeinfo for std::type_info
    type_info_dtor.o(.constdata__ZTVSt9type_info) refers to type_info_dtor.o(i._ZNSt9type_infoD1Ev) for std::type_info::~type_info()
    type_info_dtor.o(.constdata__ZTVSt9type_info) refers to type_info_dtor.o(i._ZNSt9type_infoD0Ev) for std::type_info::~type_info__deallocating()
    type_info_dtor.o(.constdata__ZTISt9type_info) refers to lib_rtti_impl.o(.constdata__ZTVN10__cxxabiv117__class_type_infoE) for vtable for __cxxabiv1::__class_type_info
    type_info_dtor.o(.constdata__ZTISt9type_info) refers to type_info_dtor.o(.constdata__ZTSSt9type_info) for typeinfo name for std::type_info


==============================================================================

Removing Unused input sections from the image.

    Removing main.o(.rev16_text), (4 bytes).
    Removing main.o(.revsh_text), (4 bytes).
    Removing main.o(.rrx_text), (6 bytes).
    Removing main.o(.ARM.exidx), (8 bytes).
    Removing main.o(.data), (2 bytes).
    Removing main.o(.data), (2 bytes).
    Removing main.o(.data), (4 bytes).
    Removing stm32f4xx_hal.o(.rev16_text), (4 bytes).
    Removing stm32f4xx_hal.o(.revsh_text), (4 bytes).
    Removing stm32f4xx_hal.o(.rrx_text), (6 bytes).
    Removing stm32f4xx_hal.o(.ARM.exidx), (8 bytes).
    Removing stm32f4xx_hal_cortex.o(.rev16_text), (4 bytes).
    Removing stm32f4xx_hal_cortex.o(.revsh_text), (4 bytes).
    Removing stm32f4xx_hal_cortex.o(.rrx_text), (6 bytes).
    Removing stm32f4xx_hal_cortex.o(.ARM.exidx), (8 bytes).
    Removing stm32f4xx_hal_dma.o(.rev16_text), (4 bytes).
    Removing stm32f4xx_hal_dma.o(.revsh_text), (4 bytes).
    Removing stm32f4xx_hal_dma.o(.rrx_text), (6 bytes).
    Removing stm32f4xx_hal_dma.o(.ARM.exidx), (8 bytes).
    Removing stm32f4xx_hal_dma_ex.o(.rev16_text), (4 bytes).
    Removing stm32f4xx_hal_dma_ex.o(.revsh_text), (4 bytes).
    Removing stm32f4xx_hal_dma_ex.o(.rrx_text), (6 bytes).
    Removing stm32f4xx_hal_dma_ex.o(.text), (304 bytes).
    Removing stm32f4xx_hal_dma_ex.o(.ARM.exidx), (8 bytes).
    Removing stm32f4xx_hal_dma2d.o(.rev16_text), (4 bytes).
    Removing stm32f4xx_hal_dma2d.o(.revsh_text), (4 bytes).
    Removing stm32f4xx_hal_dma2d.o(.rrx_text), (6 bytes).
    Removing stm32f4xx_hal_flash.o(.rev16_text), (4 bytes).
    Removing stm32f4xx_hal_flash.o(.revsh_text), (4 bytes).
    Removing stm32f4xx_hal_flash.o(.rrx_text), (6 bytes).
    Removing stm32f4xx_hal_flash.o(.text), (916 bytes).
    Removing stm32f4xx_hal_flash.o(.ARM.exidx), (8 bytes).
    Removing stm32f4xx_hal_flash.o(.bss), (32 bytes).
    Removing stm32f4xx_hal_flash_ex.o(.rev16_text), (4 bytes).
    Removing stm32f4xx_hal_flash_ex.o(.revsh_text), (4 bytes).
    Removing stm32f4xx_hal_flash_ex.o(.rrx_text), (6 bytes).
    Removing stm32f4xx_hal_flash_ex.o(.text), (732 bytes).
    Removing stm32f4xx_hal_flash_ex.o(.ARM.exidx), (8 bytes).
    Removing stm32f4xx_hal_gpio.o(.rev16_text), (4 bytes).
    Removing stm32f4xx_hal_gpio.o(.revsh_text), (4 bytes).
    Removing stm32f4xx_hal_gpio.o(.rrx_text), (6 bytes).
    Removing stm32f4xx_hal_gpio.o(.ARM.exidx), (8 bytes).
    Removing stm32f4xx_hal_spi.o(.rev16_text), (4 bytes).
    Removing stm32f4xx_hal_spi.o(.revsh_text), (4 bytes).
    Removing stm32f4xx_hal_spi.o(.rrx_text), (6 bytes).
    Removing stm32f4xx_hal_spi.o(.ARM.exidx), (8 bytes).
    Removing stm32f4xx_hal_sram.o(.rev16_text), (4 bytes).
    Removing stm32f4xx_hal_sram.o(.revsh_text), (4 bytes).
    Removing stm32f4xx_hal_sram.o(.rrx_text), (6 bytes).
    Removing stm32f4xx_hal_sram.o(.ARM.exidx), (8 bytes).
    Removing stm32f4xx_hal_tim.o(.rev16_text), (4 bytes).
    Removing stm32f4xx_hal_tim.o(.revsh_text), (4 bytes).
    Removing stm32f4xx_hal_tim.o(.rrx_text), (6 bytes).
    Removing stm32f4xx_hal_tim.o(.ARM.exidx), (8 bytes).
    Removing stm32f4xx_hal_tim_ex.o(.rev16_text), (4 bytes).
    Removing stm32f4xx_hal_tim_ex.o(.revsh_text), (4 bytes).
    Removing stm32f4xx_hal_tim_ex.o(.rrx_text), (6 bytes).
    Removing stm32f4xx_hal_tim_ex.o(.ARM.exidx), (8 bytes).
    Removing stm32f4xx_ll_fmc.o(.rev16_text), (4 bytes).
    Removing stm32f4xx_ll_fmc.o(.revsh_text), (4 bytes).
    Removing stm32f4xx_ll_fmc.o(.rrx_text), (6 bytes).
    Removing stm32f4xx_ll_fsmc.o(.rev16_text), (4 bytes).
    Removing stm32f4xx_ll_fsmc.o(.revsh_text), (4 bytes).
    Removing stm32f4xx_ll_fsmc.o(.rrx_text), (6 bytes).
    Removing stm32f4xx_ll_fsmc.o(.ARM.exidx), (8 bytes).
    Removing stm32f4xx_hal_rcc.o(.rev16_text), (4 bytes).
    Removing stm32f4xx_hal_rcc.o(.revsh_text), (4 bytes).
    Removing stm32f4xx_hal_rcc.o(.rrx_text), (6 bytes).
    Removing stm32f4xx_hal_rcc.o(.ARM.exidx), (8 bytes).
    Removing stm32f4xx_hal_rcc_ex.o(.rev16_text), (4 bytes).
    Removing stm32f4xx_hal_rcc_ex.o(.revsh_text), (4 bytes).
    Removing stm32f4xx_hal_rcc_ex.o(.rrx_text), (6 bytes).
    Removing stm32f4xx_hal_rcc_ex.o(.text), (472 bytes).
    Removing stm32f4xx_hal_rcc_ex.o(.ARM.exidx), (8 bytes).
    Removing init.o(.rev16_text), (4 bytes).
    Removing init.o(.revsh_text), (4 bytes).
    Removing init.o(.rrx_text), (6 bytes).
    Removing init.o(.ARM.exidx), (8 bytes).
    Removing screen.o(.ARM.exidx), (8 bytes).
    Removing terminal_interface.o(.ARM.exidx), (8 bytes).
    Removing gpio_ex.o(.rev16_text), (4 bytes).
    Removing gpio_ex.o(.revsh_text), (4 bytes).
    Removing gpio_ex.o(.rrx_text), (6 bytes).
    Removing gpio_ex.o(.ARM.exidx), (8 bytes).
    Removing tftili9486.o(.rev16_text), (4 bytes).
    Removing tftili9486.o(.revsh_text), (4 bytes).
    Removing tftili9486.o(.rrx_text), (6 bytes).
    Removing tftili9486.o(.ARM.exidx), (8 bytes).
    Removing device.o(.rev16_text), (4 bytes).
    Removing device.o(.revsh_text), (4 bytes).
    Removing device.o(.rrx_text), (6 bytes).
    Removing device.o(.ARM.exidx), (8 bytes).
    Removing stm32f4xx_it.o(.rev16_text), (4 bytes).
    Removing stm32f4xx_it.o(.revsh_text), (4 bytes).
    Removing stm32f4xx_it.o(.rrx_text), (6 bytes).
    Removing stm32f4xx_it.o(.ARM.exidx), (8 bytes).
    Removing geometry.o(.ARM.exidx), (8 bytes).
    Removing locker.o(.ARM.exidx), (8 bytes).
    Removing affine_tf.o(.ARM.exidx), (8 bytes).
    Removing dtostr.o(.ARM.exidx), (8 bytes).
    Removing physic.o(.ARM.exidx), (8 bytes).
    Removing memory_alloc.o(.ARM.exidx), (8 bytes).
    Removing system_stm32f4xx.o(.rev16_text), (4 bytes).
    Removing system_stm32f4xx.o(.revsh_text), (4 bytes).
    Removing system_stm32f4xx.o(.rrx_text), (6 bytes).
    Removing system_stm32f4xx.o(.ARM.exidx), (8 bytes).
    Removing main.o(.ARM.exidx), (8 bytes).
    Removing main.o(.ARM.exidx), (8 bytes).
    Removing main.o(.ARM.exidx), (8 bytes).
    Removing main.o(.ARM.exidx), (8 bytes).
    Removing main.o(.ARM.exidx), (8 bytes).
    Removing main.o(.ARM.exidx), (8 bytes).
    Removing main.o(.ARM.exidx), (8 bytes).
    Removing main.o(.ARM.exidx), (8 bytes).
    Removing main.o(.ARM.exidx), (8 bytes).
    Removing main.o(.ARM.exidx), (8 bytes).
    Removing main.o(.ARM.exidx), (8 bytes).
    Removing main.o(.ARM.exidx), (8 bytes).
    Removing main.o(.ARM.exidx), (8 bytes).
    Removing main.o(.ARM.exidx), (8 bytes).
    Removing main.o(.ARM.exidx), (8 bytes).
    Removing main.o(.ARM.exidx), (8 bytes).
    Removing main.o(.ARM.exidx), (8 bytes).
    Removing main.o(.ARM.exidx), (8 bytes).
    Removing main.o(.ARM.exidx), (8 bytes).
    Removing main.o(.constdata__ZTIN6Physic11Ball2DGroupE), (12 bytes).
    Removing main.o(.constdata__ZTI9AllocatorIN6Physic6Ball2DEE), (8 bytes).
    Removing main.o(.constdata__ZTSN6Physic11Ball2DGroupE), (23 bytes).
    Removing main.o(.constdata__ZTS9AllocatorIN6Physic6Ball2DEE), (29 bytes).
    Removing screen.o(.ARM.exidx), (8 bytes).
    Removing screen.o(.ARM.exidx), (8 bytes).
    Removing screen.o(.ARM.exidx), (8 bytes).
    Removing screen.o(.ARM.exidx), (8 bytes).
    Removing screen.o(.ARM.exidx), (8 bytes).
    Removing screen.o(.ARM.exidx), (8 bytes).
    Removing screen.o(.ARM.exidx), (8 bytes).
    Removing screen.o(.ARM.exidx), (8 bytes).
    Removing screen.o(.ARM.exidx), (8 bytes).
    Removing screen.o(.ARM.exidx), (8 bytes).
    Removing screen.o(.ARM.exidx), (8 bytes).
    Removing screen.o(.ARM.exidx), (8 bytes).
    Removing screen.o(.ARM.exidx), (8 bytes).
    Removing screen.o(.ARM.exidx), (8 bytes).
    Removing screen.o(.ARM.exidx), (8 bytes).
    Removing screen.o(.ARM.exidx), (8 bytes).
    Removing screen.o(.ARM.exidx), (8 bytes).
    Removing screen.o(.ARM.exidx), (8 bytes).
    Removing screen.o(.ARM.exidx), (8 bytes).
    Removing screen.o(.ARM.exidx), (8 bytes).
    Removing screen.o(.ARM.exidx), (8 bytes).
    Removing screen.o(.ARM.exidx), (8 bytes).
    Removing tftili9486.o(.ARM.exidx), (8 bytes).
    Removing device.o(.ARM.exidx), (8 bytes).
    Removing device.o(.ARM.exidx), (8 bytes).
    Removing device.o(.ARM.exidx), (8 bytes).
    Removing device.o(.ARM.exidx), (8 bytes).
    Removing device.o(.constdata__ZTI12LcdDriverDef), (8 bytes).
    Removing device.o(.constdata__ZTS12LcdDriverDef), (15 bytes).
    Removing physic.o(.ARM.exidx), (8 bytes).
    Removing physic.o(.ARM.exidx), (8 bytes).
    Removing physic.o(.ARM.exidx), (8 bytes).
    Removing physic.o(.ARM.exidx), (8 bytes).
    Removing physic.o(.ARM.exidx), (8 bytes).
    Removing physic.o(.ARM.exidx), (8 bytes).
    Removing physic.o(.ARM.exidx), (8 bytes).
    Removing physic.o(.ARM.exidx), (8 bytes).
    Removing physic.o(.ARM.exidx), (8 bytes).
    Removing physic.o(.ARM.exidx), (8 bytes).
    Removing physic.o(.ARM.exidx), (8 bytes).
    Removing physic.o(.ARM.exidx), (8 bytes).
    Removing physic.o(.ARM.exidx), (8 bytes).
    Removing physic.o(.ARM.exidx), (8 bytes).
    Removing physic.o(.ARM.exidx), (8 bytes).
    Removing physic.o(.ARM.exidx), (8 bytes).
    Removing physic.o(.ARM.exidx), (8 bytes).
    Removing physic.o(.ARM.exidx), (8 bytes).
    Removing physic.o(.ARM.exidx), (8 bytes).
    Removing physic.o(.ARM.exidx), (8 bytes).
    Removing physic.o(.ARM.exidx), (8 bytes).
    Removing physic.o(.ARM.exidx), (8 bytes).
    Removing physic.o(.ARM.exidx), (8 bytes).
    Removing physic.o(.ARM.exidx), (8 bytes).
    Removing physic.o(.ARM.exidx), (8 bytes).
    Removing physic.o(.ARM.exidx), (8 bytes).
    Removing physic.o(.ARM.exidx), (8 bytes).
    Removing physic.o(.ARM.exidx), (8 bytes).
    Removing physic.o(.ARM.exidx), (8 bytes).
    Removing physic.o(.ARM.exidx), (8 bytes).
    Removing physic.o(.ARM.exidx), (8 bytes).
    Removing physic.o(.ARM.exidx), (8 bytes).
    Removing physic.o(.ARM.exidx), (8 bytes).
    Removing physic.o(.ARM.exidx), (8 bytes).
    Removing physic.o(.ARM.exidx), (8 bytes).
    Removing memory_alloc.o(.ARM.exidx), (8 bytes).
    Removing memory_alloc.o(.ARM.exidx), (8 bytes).
    Removing memory_alloc.o(.ARM.exidx), (8 bytes).
    Removing memory_alloc.o(.ARM.exidx), (8 bytes).
    Removing memory_alloc.o(.ARM.exidx), (8 bytes).
    Removing memory_alloc.o(.ARM.exidx), (8 bytes).
    Removing memory_alloc.o(.ARM.exidx), (8 bytes).
    Removing memory_alloc.o(.ARM.exidx), (8 bytes).
    Removing memory_alloc.o(.ARM.exidx), (8 bytes).

202 unused section(s) (total 3833 bytes) removed from the image.

==============================================================================

Image Symbol Table

    Local Symbols

    Symbol Name                              Value     Ov Type        Size  Object(Section)

    ../../../edgfe/lib_src/arm_exceptions.c  0x00000000   Number         0  arm_exceptions_globs.o ABSOLUTE
    ../../../edgfe/lib_src/arm_exceptions.c  0x00000000   Number         0  arm_exceptions_terminate.o ABSOLUTE
    ../../../edgfe/lib_src/arm_exceptions.c  0x00000000   Number         0  arm_exceptions_callterm.o ABSOLUTE
    ../../../edgfe/lib_src/arm_exceptions.c  0x00000000   Number         0  arm_exceptions_support.o ABSOLUTE
    ../../../edgfe/lib_src/arm_exceptions.c  0x00000000   Number         0  arm_exceptions_mem.o ABSOLUTE
    ../../../edgfe/lib_src/arm_noexceptions.c 0x00000000   Number         0  arm_begincatch_noexceptions.o ABSOLUTE
    ../../../edgfe/lib_src/dtor_list.c       0x00000000   Number         0  cxa_finalize.o ABSOLUTE
    ../../../edgfe/lib_src/dtor_list.c       0x00000000   Number         0  cxa_atexit.o ABSOLUTE
    ../../../edgfe/lib_src/dtor_list.c       0x00000000   Number         0  aeabi_atexit.o ABSOLUTE
    ../../../edgfe/lib_src/typeinfo.c        0x00000000   Number         0  lib_rtti_impl.o ABSOLUTE
    ../../../edgfe/lib_src/typeinfo.c        0x00000000   Number         0  type_info_dtor.o ABSOLUTE
    ../../array_helpers.cpp                  0x00000000   Number         0  aeabi_vec_dtor_noexceptions.o ABSOLUTE
    ../../array_helpers.cpp                  0x00000000   Number         0  aeabi_vec_ctor_nocookie_nodtor.o ABSOLUTE
    ../clib/angel/boardlib.s                 0x00000000   Number         0  boardinit3.o ABSOLUTE
    ../clib/angel/boardlib.s                 0x00000000   Number         0  boardshut.o ABSOLUTE
    ../clib/angel/boardlib.s                 0x00000000   Number         0  boardinit2.o ABSOLUTE
    ../clib/angel/boardlib.s                 0x00000000   Number         0  boardinit1.o ABSOLUTE
    ../clib/angel/handlers.s                 0x00000000   Number         0  __scatter_zi.o ABSOLUTE
    ../clib/angel/handlers.s                 0x00000000   Number         0  __scatter_copy.o ABSOLUTE
    ../clib/angel/kernel.s                   0x00000000   Number         0  rtexit.o ABSOLUTE
    ../clib/angel/kernel.s                   0x00000000   Number         0  rtexit2.o ABSOLUTE
    ../clib/angel/kernel.s                   0x00000000   Number         0  __rtentry.o ABSOLUTE
    ../clib/angel/kernel.s                   0x00000000   Number         0  __rtentry2.o ABSOLUTE
    ../clib/angel/kernel.s                   0x00000000   Number         0  __rtentry4.o ABSOLUTE
    ../clib/angel/rt.s                       0x00000000   Number         0  rt_errno_addr.o ABSOLUTE
    ../clib/angel/rt.s                       0x00000000   Number         0  rt_eh_globals_addr_intlibspace.o ABSOLUTE
    ../clib/angel/rt.s                       0x00000000   Number         0  rt_heap_descriptor.o ABSOLUTE
    ../clib/angel/rt.s                       0x00000000   Number         0  rt_heap_descriptor_intlibspace.o ABSOLUTE
    ../clib/angel/rt.s                       0x00000000   Number         0  rt_ddtor_pointer_addr_intlibspace.o ABSOLUTE
    ../clib/angel/rt.s                       0x00000000   Number         0  rt_eh_globals_addr.o ABSOLUTE
    ../clib/angel/rt.s                       0x00000000   Number         0  rt_ddtor_pointer_addr.o ABSOLUTE
    ../clib/angel/rt.s                       0x00000000   Number         0  rt_raise.o ABSOLUTE
    ../clib/angel/rt.s                       0x00000000   Number         0  rt_errno_addr_intlibspace.o ABSOLUTE
    ../clib/angel/scatter.s                  0x00000000   Number         0  __scatter.o ABSOLUTE
    ../clib/angel/startup.s                  0x00000000   Number         0  __main.o ABSOLUTE
    ../clib/angel/sys.s                      0x00000000   Number         0  use_no_semi.o ABSOLUTE
    ../clib/angel/sys.s                      0x00000000   Number         0  indicate_semi.o ABSOLUTE
    ../clib/angel/sys.s                      0x00000000   Number         0  libspace.o ABSOLUTE
    ../clib/angel/sys.s                      0x00000000   Number         0  sys_stackheap_outer.o ABSOLUTE
    ../clib/angel/sys.s                      0x00000000   Number         0  mutex_dummy.o ABSOLUTE
    ../clib/angel/sysapp.c                   0x00000000   Number         0  sys_exit.o ABSOLUTE
    ../clib/angel/sysapp.c                   0x00000000   Number         0  sys_command.o ABSOLUTE
    ../clib/angel/sysapp.c                   0x00000000   Number         0  sys_wrch.o ABSOLUTE
    ../clib/arm_runtime.c                    0x00000000   Number         0  init_aeabi.o ABSOLUTE
    ../clib/arm_runtime.c                    0x00000000   Number         0  init_aeabi.o ABSOLUTE
    ../clib/armsys.c                         0x00000000   Number         0  _get_argv.o ABSOLUTE
    ../clib/armsys.c                         0x00000000   Number         0  no_argv.o ABSOLUTE
    ../clib/armsys.c                         0x00000000   Number         0  _get_argv_nomalloc.o ABSOLUTE
    ../clib/armsys.c                         0x00000000   Number         0  argv_veneer.o ABSOLUTE
    ../clib/armsys.c                         0x00000000   Number         0  argv_veneer.o ABSOLUTE
    ../clib/fenv.c                           0x00000000   Number         0  _rserrno.o ABSOLUTE
    ../clib/heap1.c                          0x00000000   Number         0  h1_free_mt.o ABSOLUTE
    ../clib/heap1.c                          0x00000000   Number         0  h1_alloc.o ABSOLUTE
    ../clib/heap1.c                          0x00000000   Number         0  h1_final_mt.o ABSOLUTE
    ../clib/heap1.c                          0x00000000   Number         0  h1_alloc_mt.o ABSOLUTE
    ../clib/heap1.c                          0x00000000   Number         0  h1_extend.o ABSOLUTE
    ../clib/heap1.c                          0x00000000   Number         0  h1_extend_mt.o ABSOLUTE
    ../clib/heap1.c                          0x00000000   Number         0  h1_init.o ABSOLUTE
    ../clib/heap1.c                          0x00000000   Number         0  h1_free.o ABSOLUTE
    ../clib/heap1.c                          0x00000000   Number         0  h1_init_mt.o ABSOLUTE
    ../clib/heap1.c                          0x00000000   Number         0  h1_final.o ABSOLUTE
    ../clib/heap2.c                          0x00000000   Number         0  heap2.o ABSOLUTE
    ../clib/heap2.c                          0x00000000   Number         0  heap2mt.o ABSOLUTE
    ../clib/heap2.c                          0x00000000   Number         0  fdtree.o ABSOLUTE
    ../clib/heapalloc.c                      0x00000000   Number         0  malloc.o ABSOLUTE
    ../clib/heapalloc.c                      0x00000000   Number         0  free.o ABSOLUTE
    ../clib/heapalloc.c                      0x00000000   Number         0  hrguard.o ABSOLUTE
    ../clib/heapalloc.c                      0x00000000   Number         0  maybetermalloc1.o ABSOLUTE
    ../clib/heapalloc.c                      0x00000000   Number         0  maybetermalloc2.o ABSOLUTE
    ../clib/heapalloc.c                      0x00000000   Number         0  init_alloc.o ABSOLUTE
    ../clib/heapalloc.c                      0x00000000   Number         0  hguard.o ABSOLUTE
    ../clib/heapalloc.c                      0x00000000   Number         0  term_alloc.o ABSOLUTE
    ../clib/heapalloc.c                      0x00000000   Number         0  maybetermalloc2.o ABSOLUTE
    ../clib/heapalloc.c                      0x00000000   Number         0  heapstubs.o ABSOLUTE
    ../clib/heapalloc.c                      0x00000000   Number         0  maybetermalloc1.o ABSOLUTE
    ../clib/heapaux.c                        0x00000000   Number         0  heapauxi.o ABSOLUTE
    ../clib/heapaux.c                        0x00000000   Number         0  heapauxa.o ABSOLUTE
    ../clib/libinit.s                        0x00000000   Number         0  libinit.o ABSOLUTE
    ../clib/libinit.s                        0x00000000   Number         0  libinit2.o ABSOLUTE
    ../clib/libinit.s                        0x00000000   Number         0  libshutdown2.o ABSOLUTE
    ../clib/libinit.s                        0x00000000   Number         0  libshutdown.o ABSOLUTE
    ../clib/memcpset.s                       0x00000000   Number         0  rt_memcpy_w.o ABSOLUTE
    ../clib/signal.c                         0x00000000   Number         0  defsig_other.o ABSOLUTE
    ../clib/signal.c                         0x00000000   Number         0  defsig_segv_inner.o ABSOLUTE
    ../clib/signal.c                         0x00000000   Number         0  defsig_cppl_inner.o ABSOLUTE
    ../clib/signal.c                         0x00000000   Number         0  defsig_pvfn_inner.o ABSOLUTE
    ../clib/signal.c                         0x00000000   Number         0  defsig_stak_inner.o ABSOLUTE
    ../clib/signal.c                         0x00000000   Number         0  defsig_rtred_inner.o ABSOLUTE
    ../clib/signal.c                         0x00000000   Number         0  defsig_fpe_inner.o ABSOLUTE
    ../clib/signal.c                         0x00000000   Number         0  defsig_abrt_inner.o ABSOLUTE
    ../clib/signal.c                         0x00000000   Number         0  defsig_general.o ABSOLUTE
    ../clib/signal.c                         0x00000000   Number         0  __raise.o ABSOLUTE
    ../clib/signal.c                         0x00000000   Number         0  defsig_rtmem_inner.o ABSOLUTE
    ../clib/signal.c                         0x00000000   Number         0  defsig_abrt_outer.o ABSOLUTE
    ../clib/signal.c                         0x00000000   Number         0  defsig_exit.o ABSOLUTE
    ../clib/signal.c                         0x00000000   Number         0  defsig_rtmem_formal.o ABSOLUTE
    ../clib/signal.c                         0x00000000   Number         0  defsig_rtmem_outer.o ABSOLUTE
    ../clib/signal.c                         0x00000000   Number         0  defsig_abrt_formal.o ABSOLUTE
    ../clib/signal.s                         0x00000000   Number         0  defsig.o ABSOLUTE
    ../clib/stdlib.c                         0x00000000   Number         0  exit.o ABSOLUTE
    ../clib/stdlib.c                         0x00000000   Number         0  atexit_cpp.o ABSOLUTE
    ../clib/stdlib.c                         0x00000000   Number         0  rand.o ABSOLUTE
    ../clib/stdlib.c                         0x00000000   Number         0  rand.o ABSOLUTE
    ../clib/stdlib.c                         0x00000000   Number         0  abort.o ABSOLUTE
    ../clib/stdlib.c                         0x00000000   Number         0  bsearchnoex.o ABSOLUTE
    ../clib/string.c                         0x00000000   Number         0  strlen.o ABSOLUTE
    ../clib/unwind_pr.c                      0x00000000   Number         0  unwind_prcommon.o ABSOLUTE
    ../clib/unwind_pr.c                      0x00000000   Number         0  unwind_pr0.o ABSOLUTE
    ../clib/unwinder.c                       0x00000000   Number         0  unwinder.o ABSOLUTE
    ../clib/unwinder.c                       0x00000000   Number         0  unwind_activity.o ABSOLUTE
    ../clib/unwinder.c                       0x00000000   Number         0  unwinder.o ABSOLUTE
    ../clib/unwinder.c                       0x00000000   Number         0  unwind_activity.o ABSOLUTE
    ../fplib/basic.s                         0x00000000   Number         0  basic.o ABSOLUTE
    ../fplib/d2f.s                           0x00000000   Number         0  d2f.o ABSOLUTE
    ../fplib/daddsub.s                       0x00000000   Number         0  daddsub_clz.o ABSOLUTE
    ../fplib/ddiv.s                          0x00000000   Number         0  ddiv.o ABSOLUTE
    ../fplib/dmul.s                          0x00000000   Number         0  dmul.o ABSOLUTE
    ../fplib/dnaninf.s                       0x00000000   Number         0  dnaninf.o ABSOLUTE
    ../fplib/dretinf.s                       0x00000000   Number         0  dretinf.o ABSOLUTE
    ../fplib/f2d.s                           0x00000000   Number         0  f2d.o ABSOLUTE
    ../fplib/fnaninf.s                       0x00000000   Number         0  fnaninf.o ABSOLUTE
    ../fplib/fpinit.s                        0x00000000   Number         0  fpinit.o ABSOLUTE
    ../fplib/fretinf.s                       0x00000000   Number         0  fretinf.o ABSOLUTE
    ../fplib/usenofp.s                       0x00000000   Number         0  usenofp.o ABSOLUTE
    ../mathlib/atan.c                        0x00000000   Number         0  atan.o ABSOLUTE
    ../mathlib/atan.c                        0x00000000   Number         0  atan_x.o ABSOLUTE
    ../mathlib/cosf.c                        0x00000000   Number         0  cosf.o ABSOLUTE
    ../mathlib/cosf.c                        0x00000000   Number         0  cosf_x.o ABSOLUTE
    ../mathlib/dunder.c                      0x00000000   Number         0  dunder.o ABSOLUTE
    ../mathlib/fabs.c                        0x00000000   Number         0  fabs.o ABSOLUTE
    ../mathlib/fpclassify.c                  0x00000000   Number         0  fpclassify.o ABSOLUTE
    ../mathlib/fpclassifyf.c                 0x00000000   Number         0  fpclassifyf.o ABSOLUTE
    ../mathlib/funder.c                      0x00000000   Number         0  funder.o ABSOLUTE
    ../mathlib/poly.c                        0x00000000   Number         0  poly.o ABSOLUTE
    ../mathlib/rredf.c                       0x00000000   Number         0  rredf.o ABSOLUTE
    ../mathlib/sinf.c                        0x00000000   Number         0  sinf_x.o ABSOLUTE
    ../mathlib/sinf.c                        0x00000000   Number         0  sinf.o ABSOLUTE
    RTE\Device\STM32F417IETx\startup_stm32f417xx.s 0x00000000   Number         0  startup_stm32f417xx.o ABSOLUTE
    RTE\Device\STM32F417IETx\system_stm32f4xx.c 0x00000000   Number         0  system_stm32f4xx.o ABSOLUTE
    RTE\\Device\\STM32F417IETx\\system_stm32f4xx.c 0x00000000   Number         0  system_stm32f4xx.o ABSOLUTE
    dc.s                                     0x00000000   Number         0  dc.o ABSOLUTE
    device\GUI\src\Screen.cpp                0x00000000   Number         0  screen.o ABSOLUTE
    device\GUI\src\Terminal_interface.cpp    0x00000000   Number         0  terminal_interface.o ABSOLUTE
    device\GUI\src\dtostr.cpp                0x00000000   Number         0  dtostr.o ABSOLUTE
    device\\hardware\\src\\TFTili9486.cpp    0x00000000   Number         0  tftili9486.o ABSOLUTE
    device\\hardware\\src\\device.cpp        0x00000000   Number         0  device.o ABSOLUTE
    device\\hardware\\src\\gpio_ex.cpp       0x00000000   Number         0  gpio_ex.o ABSOLUTE
    device\\init\\src\\init.cpp              0x00000000   Number         0  init.o ABSOLUTE
    device\hardware\src\TFTili9486.cpp       0x00000000   Number         0  tftili9486.o ABSOLUTE
    device\hardware\src\device.cpp           0x00000000   Number         0  device.o ABSOLUTE
    device\hardware\src\gpio_ex.cpp          0x00000000   Number         0  gpio_ex.o ABSOLUTE
    device\init\src\init.cpp                 0x00000000   Number         0  init.o ABSOLUTE
    drivers\\src\\stm32f4xx_hal.c            0x00000000   Number         0  stm32f4xx_hal.o ABSOLUTE
    drivers\\src\\stm32f4xx_hal_cortex.c     0x00000000   Number         0  stm32f4xx_hal_cortex.o ABSOLUTE
    drivers\\src\\stm32f4xx_hal_dma.c        0x00000000   Number         0  stm32f4xx_hal_dma.o ABSOLUTE
    drivers\\src\\stm32f4xx_hal_dma2d.c      0x00000000   Number         0  stm32f4xx_hal_dma2d.o ABSOLUTE
    drivers\\src\\stm32f4xx_hal_dma_ex.c     0x00000000   Number         0  stm32f4xx_hal_dma_ex.o ABSOLUTE
    drivers\\src\\stm32f4xx_hal_flash.c      0x00000000   Number         0  stm32f4xx_hal_flash.o ABSOLUTE
    drivers\\src\\stm32f4xx_hal_flash_ex.c   0x00000000   Number         0  stm32f4xx_hal_flash_ex.o ABSOLUTE
    drivers\\src\\stm32f4xx_hal_gpio.c       0x00000000   Number         0  stm32f4xx_hal_gpio.o ABSOLUTE
    drivers\\src\\stm32f4xx_hal_rcc.c        0x00000000   Number         0  stm32f4xx_hal_rcc.o ABSOLUTE
    drivers\\src\\stm32f4xx_hal_rcc_ex.c     0x00000000   Number         0  stm32f4xx_hal_rcc_ex.o ABSOLUTE
    drivers\\src\\stm32f4xx_hal_spi.c        0x00000000   Number         0  stm32f4xx_hal_spi.o ABSOLUTE
    drivers\\src\\stm32f4xx_hal_sram.c       0x00000000   Number         0  stm32f4xx_hal_sram.o ABSOLUTE
    drivers\\src\\stm32f4xx_hal_tim.c        0x00000000   Number         0  stm32f4xx_hal_tim.o ABSOLUTE
    drivers\\src\\stm32f4xx_hal_tim_ex.c     0x00000000   Number         0  stm32f4xx_hal_tim_ex.o ABSOLUTE
    drivers\\src\\stm32f4xx_ll_fmc.c         0x00000000   Number         0  stm32f4xx_ll_fmc.o ABSOLUTE
    drivers\\src\\stm32f4xx_ll_fsmc.c        0x00000000   Number         0  stm32f4xx_ll_fsmc.o ABSOLUTE
    drivers\src\stm32f4xx_hal.c              0x00000000   Number         0  stm32f4xx_hal.o ABSOLUTE
    drivers\src\stm32f4xx_hal_cortex.c       0x00000000   Number         0  stm32f4xx_hal_cortex.o ABSOLUTE
    drivers\src\stm32f4xx_hal_dma.c          0x00000000   Number         0  stm32f4xx_hal_dma.o ABSOLUTE
    drivers\src\stm32f4xx_hal_dma2d.c        0x00000000   Number         0  stm32f4xx_hal_dma2d.o ABSOLUTE
    drivers\src\stm32f4xx_hal_dma_ex.c       0x00000000   Number         0  stm32f4xx_hal_dma_ex.o ABSOLUTE
    drivers\src\stm32f4xx_hal_flash.c        0x00000000   Number         0  stm32f4xx_hal_flash.o ABSOLUTE
    drivers\src\stm32f4xx_hal_flash_ex.c     0x00000000   Number         0  stm32f4xx_hal_flash_ex.o ABSOLUTE
    drivers\src\stm32f4xx_hal_gpio.c         0x00000000   Number         0  stm32f4xx_hal_gpio.o ABSOLUTE
    drivers\src\stm32f4xx_hal_rcc.c          0x00000000   Number         0  stm32f4xx_hal_rcc.o ABSOLUTE
    drivers\src\stm32f4xx_hal_rcc_ex.c       0x00000000   Number         0  stm32f4xx_hal_rcc_ex.o ABSOLUTE
    drivers\src\stm32f4xx_hal_spi.c          0x00000000   Number         0  stm32f4xx_hal_spi.o ABSOLUTE
    drivers\src\stm32f4xx_hal_sram.c         0x00000000   Number         0  stm32f4xx_hal_sram.o ABSOLUTE
    drivers\src\stm32f4xx_hal_tim.c          0x00000000   Number         0  stm32f4xx_hal_tim.o ABSOLUTE
    drivers\src\stm32f4xx_hal_tim_ex.c       0x00000000   Number         0  stm32f4xx_hal_tim_ex.o ABSOLUTE
    drivers\src\stm32f4xx_ll_fmc.c           0x00000000   Number         0  stm32f4xx_ll_fmc.o ABSOLUTE
    drivers\src\stm32f4xx_ll_fsmc.c          0x00000000   Number         0  stm32f4xx_ll_fsmc.o ABSOLUTE
    memory\src\memory_alloc.cpp              0x00000000   Number         0  memory_alloc.o ABSOLUTE
    misc\src\affine_tf.cpp                   0x00000000   Number         0  affine_tf.o ABSOLUTE
    misc\src\geometry.cpp                    0x00000000   Number         0  geometry.o ABSOLUTE
    misc\src\locker.cpp                      0x00000000   Number         0  locker.o ABSOLUTE
    misc\src\physic.cpp                      0x00000000   Number         0  physic.o ABSOLUTE
    user\\src\\main.cpp                      0x00000000   Number         0  main.o ABSOLUTE
    user\\src\\stm32f4xx_it.c                0x00000000   Number         0  stm32f4xx_it.o ABSOLUTE
    user\src\main.cpp                        0x00000000   Number         0  main.o ABSOLUTE
    user\src\stm32f4xx_it.c                  0x00000000   Number         0  stm32f4xx_it.o ABSOLUTE
    RESET                                    0x08000000   Section      392  startup_stm32f417xx.o(RESET)
    !!!main                                  0x08000188   Section        8  __main.o(!!!main)
    !!!scatter                               0x08000190   Section       52  __scatter.o(!!!scatter)
    !!handler_copy                           0x080001c4   Section       26  __scatter_copy.o(!!handler_copy)
    !!handler_zi                             0x080001e0   Section       28  __scatter_zi.o(!!handler_zi)
    .ARM.Collect$$libinit$$00000000          0x080001fc   Section        2  libinit.o(.ARM.Collect$$libinit$$00000000)
    .ARM.Collect$$libinit$$00000001          0x080001fe   Section        4  libinit2.o(.ARM.Collect$$libinit$$00000001)
    .ARM.Collect$$libinit$$00000004          0x08000202   Section        0  libinit2.o(.ARM.Collect$$libinit$$00000004)
    .ARM.Collect$$libinit$$00000005          0x08000202   Section        8  libinit2.o(.ARM.Collect$$libinit$$00000005)
    .ARM.Collect$$libinit$$0000000A          0x0800020a   Section        0  libinit2.o(.ARM.Collect$$libinit$$0000000A)
    .ARM.Collect$$libinit$$0000000C          0x0800020a   Section        0  libinit2.o(.ARM.Collect$$libinit$$0000000C)
    .ARM.Collect$$libinit$$0000000D          0x0800020a   Section        4  libinit2.o(.ARM.Collect$$libinit$$0000000D)
    .ARM.Collect$$libinit$$0000000E          0x0800020e   Section        0  libinit2.o(.ARM.Collect$$libinit$$0000000E)
    .ARM.Collect$$libinit$$00000011          0x0800020e   Section        0  libinit2.o(.ARM.Collect$$libinit$$00000011)
    .ARM.Collect$$libinit$$00000013          0x0800020e   Section        0  libinit2.o(.ARM.Collect$$libinit$$00000013)
    .ARM.Collect$$libinit$$00000015          0x0800020e   Section        0  libinit2.o(.ARM.Collect$$libinit$$00000015)
    .ARM.Collect$$libinit$$00000017          0x0800020e   Section        0  libinit2.o(.ARM.Collect$$libinit$$00000017)
    .ARM.Collect$$libinit$$00000019          0x0800020e   Section        0  libinit2.o(.ARM.Collect$$libinit$$00000019)
    .ARM.Collect$$libinit$$0000001B          0x0800020e   Section        0  libinit2.o(.ARM.Collect$$libinit$$0000001B)
    .ARM.Collect$$libinit$$0000001D          0x0800020e   Section        0  libinit2.o(.ARM.Collect$$libinit$$0000001D)
    .ARM.Collect$$libinit$$0000001F          0x0800020e   Section        0  libinit2.o(.ARM.Collect$$libinit$$0000001F)
    .ARM.Collect$$libinit$$00000021          0x0800020e   Section        0  libinit2.o(.ARM.Collect$$libinit$$00000021)
    .ARM.Collect$$libinit$$00000023          0x0800020e   Section        0  libinit2.o(.ARM.Collect$$libinit$$00000023)
    .ARM.Collect$$libinit$$00000025          0x0800020e   Section        0  libinit2.o(.ARM.Collect$$libinit$$00000025)
    .ARM.Collect$$libinit$$0000002C          0x0800020e   Section        0  libinit2.o(.ARM.Collect$$libinit$$0000002C)
    .ARM.Collect$$libinit$$0000002E          0x0800020e   Section        0  libinit2.o(.ARM.Collect$$libinit$$0000002E)
    .ARM.Collect$$libinit$$00000030          0x0800020e   Section        0  libinit2.o(.ARM.Collect$$libinit$$00000030)
    .ARM.Collect$$libinit$$00000031          0x0800020e   Section        4  libinit2.o(.ARM.Collect$$libinit$$00000031)
    .ARM.Collect$$libinit$$00000032          0x08000212   Section        0  libinit2.o(.ARM.Collect$$libinit$$00000032)
    .ARM.Collect$$libinit$$00000033          0x08000212   Section        2  libinit2.o(.ARM.Collect$$libinit$$00000033)
    .ARM.Collect$$libshutdown$$00000000      0x08000214   Section        2  libshutdown.o(.ARM.Collect$$libshutdown$$00000000)
    .ARM.Collect$$libshutdown$$00000001      0x08000216   Section        6  libshutdown2.o(.ARM.Collect$$libshutdown$$00000001)
    .ARM.Collect$$libshutdown$$00000003      0x0800021c   Section        0  libshutdown2.o(.ARM.Collect$$libshutdown$$00000003)
    .ARM.Collect$$libshutdown$$00000006      0x0800021c   Section        0  libshutdown2.o(.ARM.Collect$$libshutdown$$00000006)
    .ARM.Collect$$libshutdown$$00000009      0x0800021c   Section        0  libshutdown2.o(.ARM.Collect$$libshutdown$$00000009)
    .ARM.Collect$$libshutdown$$0000000B      0x0800021c   Section        0  libshutdown2.o(.ARM.Collect$$libshutdown$$0000000B)
    .ARM.Collect$$libshutdown$$0000000E      0x0800021c   Section        0  libshutdown2.o(.ARM.Collect$$libshutdown$$0000000E)
    .ARM.Collect$$libshutdown$$0000000F      0x0800021c   Section        2  libshutdown2.o(.ARM.Collect$$libshutdown$$0000000F)
    .ARM.Collect$$rtentry$$00000000          0x0800021e   Section        0  __rtentry.o(.ARM.Collect$$rtentry$$00000000)
    .ARM.Collect$$rtentry$$00000002          0x0800021e   Section        0  __rtentry2.o(.ARM.Collect$$rtentry$$00000002)
    .ARM.Collect$$rtentry$$00000004          0x0800021e   Section        6  __rtentry4.o(.ARM.Collect$$rtentry$$00000004)
    .ARM.Collect$$rtentry$$00000009          0x08000224   Section        0  __rtentry2.o(.ARM.Collect$$rtentry$$00000009)
    .ARM.Collect$$rtentry$$0000000A          0x08000224   Section        4  __rtentry2.o(.ARM.Collect$$rtentry$$0000000A)
    .ARM.Collect$$rtentry$$0000000C          0x08000228   Section        0  __rtentry2.o(.ARM.Collect$$rtentry$$0000000C)
    .ARM.Collect$$rtentry$$0000000D          0x08000228   Section        8  __rtentry2.o(.ARM.Collect$$rtentry$$0000000D)
    .ARM.Collect$$rtexit$$00000000           0x08000230   Section        2  rtexit.o(.ARM.Collect$$rtexit$$00000000)
    .ARM.Collect$$rtexit$$00000002           0x08000232   Section        0  rtexit2.o(.ARM.Collect$$rtexit$$00000002)
    .ARM.Collect$$rtexit$$00000003           0x08000232   Section        4  rtexit2.o(.ARM.Collect$$rtexit$$00000003)
    .ARM.Collect$$rtexit$$00000004           0x08000236   Section        6  rtexit2.o(.ARM.Collect$$rtexit$$00000004)
    .emb_text                                0x0800023c   Section       52  rand.o(.emb_text)
    .emb_text                                0x08000270   Section        0  maybetermalloc1.o(.emb_text)
    .text                                    0x08000270   Section        0  main.o(.text)
    __sti___8_main_cpp_c                     0x0800049f   Thumb Code    68  main.o(.text)
    .text                                    0x08000538   Section        0  stm32f4xx_hal.o(.text)
    .text                                    0x080006a4   Section        0  stm32f4xx_hal_cortex.o(.text)
    .text                                    0x080008a0   Section        0  stm32f4xx_hal_dma.o(.text)
    .text                                    0x08004f68   Section        0  stm32f4xx_hal_gpio.o(.text)
    .text                                    0x08005320   Section        0  stm32f4xx_hal_spi.o(.text)
    SPI_WaitOnFlagUntilTimeout(__SPI_HandleTypeDef*, unsigned, FlagStatus, unsigned) 0x080053d5   Thumb Code   242  stm32f4xx_hal_spi.o(.text)
    SPI_TxCloseIRQHandler(__SPI_HandleTypeDef*) 0x08005b67   Thumb Code   138  stm32f4xx_hal_spi.o(.text)
    SPI_TxISR(__SPI_HandleTypeDef*)          0x08005bf1   Thumb Code    66  stm32f4xx_hal_spi.o(.text)
    SPI_RxCloseIRQHandler(__SPI_HandleTypeDef*) 0x08005cdf   Thumb Code   208  stm32f4xx_hal_spi.o(.text)
    SPI_2LinesRxISR(__SPI_HandleTypeDef*)    0x08005daf   Thumb Code    46  stm32f4xx_hal_spi.o(.text)
    SPI_RxISR(__SPI_HandleTypeDef*)          0x08005e97   Thumb Code    72  stm32f4xx_hal_spi.o(.text)
    SPI_DMAError(__DMA_HandleTypeDef*)       0x08005f95   Thumb Code    30  stm32f4xx_hal_spi.o(.text)
    SPI_DMATransmitCplt(__DMA_HandleTypeDef*) 0x08005fb3   Thumb Code   110  stm32f4xx_hal_spi.o(.text)
    SPI_DMAHalfTransmitCplt(__DMA_HandleTypeDef*) 0x08006023   Thumb Code    10  stm32f4xx_hal_spi.o(.text)
    SPI_DMAEndTransmitReceive(__SPI_HandleTypeDef*) 0x080060e5   Thumb Code   148  stm32f4xx_hal_spi.o(.text)
    SPI_DMAReceiveCplt(__DMA_HandleTypeDef*) 0x08006179   Thumb Code   222  stm32f4xx_hal_spi.o(.text)
    SPI_DMAHalfReceiveCplt(__DMA_HandleTypeDef*) 0x08006259   Thumb Code    10  stm32f4xx_hal_spi.o(.text)
    SPI_DMATransmitReceiveCplt(__DMA_HandleTypeDef*) 0x08006263   Thumb Code    54  stm32f4xx_hal_spi.o(.text)
    SPI_DMAHalfTransmitReceiveCplt(__DMA_HandleTypeDef*) 0x0800629b   Thumb Code    10  stm32f4xx_hal_spi.o(.text)
    .text                                    0x08006608   Section        0  stm32f4xx_hal_sram.o(.text)
    .text                                    0x08006930   Section        0  stm32f4xx_hal_tim.o(.text)
    TIM_DMAPeriodElapsedCplt(__DMA_HandleTypeDef*) 0x08006adf   Thumb Code    16  stm32f4xx_hal_tim.o(.text)
    TIM_OC4_SetConfig(TIM_TypeDef*, TIM_OC_InitTypeDef*) 0x08007d75   Thumb Code    84  stm32f4xx_hal_tim.o(.text)
    TIM_OC3_SetConfig(TIM_TypeDef*, TIM_OC_InitTypeDef*) 0x08007dc9   Thumb Code   108  stm32f4xx_hal_tim.o(.text)
    TIM_OC1_SetConfig(TIM_TypeDef*, TIM_OC_InitTypeDef*) 0x08007ea1   Thumb Code   100  stm32f4xx_hal_tim.o(.text)
    TIM_TI4_SetConfig(TIM_TypeDef*, unsigned, unsigned, unsigned) 0x08007f5b   Thumb Code    64  stm32f4xx_hal_tim.o(.text)
    TIM_TI3_SetConfig(TIM_TypeDef*, unsigned, unsigned, unsigned) 0x08007f9b   Thumb Code    60  stm32f4xx_hal_tim.o(.text)
    TIM_TI2_SetConfig(TIM_TypeDef*, unsigned, unsigned, unsigned) 0x08007fd7   Thumb Code    64  stm32f4xx_hal_tim.o(.text)
    TIM_DMATriggerCplt(__DMA_HandleTypeDef*) 0x08008321   Thumb Code    16  stm32f4xx_hal_tim.o(.text)
    TIM_ETR_SetConfig(TIM_TypeDef*, unsigned, unsigned, unsigned) 0x080086c9   Thumb Code    22  stm32f4xx_hal_tim.o(.text)
    TIM_ITRx_SetConfig(TIM_TypeDef*, unsigned short) 0x080087bd   Thumb Code    16  stm32f4xx_hal_tim.o(.text)
    TIM_TI1_ConfigInputStage(TIM_TypeDef*, unsigned, unsigned) 0x080087cd   Thumb Code    38  stm32f4xx_hal_tim.o(.text)
    TIM_TI2_ConfigInputStage(TIM_TypeDef*, unsigned, unsigned) 0x080087f3   Thumb Code    36  stm32f4xx_hal_tim.o(.text)
    TIM_SlaveTimer_SetConfig(TIM_HandleTypeDef*, TIM_SlaveConfigTypeDef*) 0x08008937   Thumb Code   122  stm32f4xx_hal_tim.o(.text)
    .text                                    0x08008a9c   Section        0  stm32f4xx_hal_tim_ex.o(.text)
    TIM_CCxNChannelCmd(TIM_TypeDef*, unsigned, unsigned) 0x08008cd7   Thumb Code    26  stm32f4xx_hal_tim_ex.o(.text)
    .text                                    0x080095cc   Section        0  stm32f4xx_ll_fsmc.o(.text)
    .text                                    0x08009940   Section        0  stm32f4xx_hal_rcc.o(.text)
    .text                                    0x0800a360   Section        0  init.o(.text)
    .text                                    0x0800a7d0   Section        0  screen.o(.text)
    .text                                    0x0800aa40   Section        0  terminal_interface.o(.text)
    .text                                    0x0800abec   Section        0  gpio_ex.o(.text)
    .text                                    0x0800acd0   Section        0  tftili9486.o(.text)
    .text                                    0x0800b0d4   Section        0  device.o(.text)
    __sti___10_device_cpp_c6d18d2d           0x0800b0f7   Thumb Code    62  device.o(.text)
    .text                                    0x0800b15c   Section        0  stm32f4xx_it.o(.text)
    .text                                    0x0800b188   Section        0  geometry.o(.text)
    .text                                    0x0800b534   Section        0  locker.o(.text)
    .text                                    0x0800b546   Section        0  affine_tf.o(.text)
    .text                                    0x0800b58e   Section        0  dtostr.o(.text)
    STR::Reverse(char*)                      0x0800b58f   Thumb Code    36  dtostr.o(.text)
    .text                                    0x0800b5f0   Section        0  physic.o(.text)
    .text                                    0x0800c2e0   Section        0  memory_alloc.o(.text)
    .text                                    0x0800c704   Section       64  startup_stm32f417xx.o(.text)
    $v0                                      0x0800c704   Number         0  startup_stm32f417xx.o(.text)
    .text                                    0x0800c744   Section        0  system_stm32f4xx.o(.text)
    .text                                    0x0800c82c   Section        8  rt_errno_addr_intlibspace.o(.text)
    .text                                    0x0800c834   Section        0  rand.o(.text)
    .text                                    0x0800c870   Section        0  strlen.o(.text)
    .text                                    0x0800c8ae   Section      100  rt_memcpy_w.o(.text)
    .text                                    0x0800c912   Section        0  heapauxi.o(.text)
    .text                                    0x0800c918   Section        0  init_aeabi.o(.text)
    .text                                    0x0800c93c   Section        0  aeabi_vec_dtor_noexceptions.o(.text)
    .text                                    0x0800c960   Section        8  libspace.o(.text)
    .text                                    0x0800c968   Section        8  rt_ddtor_pointer_addr_intlibspace.o(.text)
    .text                                    0x0800c970   Section        0  h1_alloc.o(.text)
    .text                                    0x0800c9ce   Section        0  _rserrno.o(.text)
    .text                                    0x0800c9e4   Section        8  rt_heap_descriptor_intlibspace.o(.text)
    .text                                    0x0800c9ec   Section        0  hguard.o(.text)
    .text                                    0x0800c9f0   Section        0  init_alloc.o(.text)
    .text                                    0x0800ca7a   Section        0  h1_init.o(.text)
    .text                                    0x0800ca88   Section        0  h1_free.o(.text)
    .text                                    0x0800cad6   Section       74  sys_stackheap_outer.o(.text)
    .text                                    0x0800cb20   Section        0  h1_extend.o(.text)
    .text                                    0x0800cb54   Section        0  exit.o(.text)
    .text                                    0x0800cb60   Section        0  defsig_rtmem_outer.o(.text)
    .text                                    0x0800cb70   Section        0  sys_exit.o(.text)
    .text                                    0x0800cb7c   Section        2  use_no_semi.o(.text)
    .text                                    0x0800cb7e   Section        0  defsig_exit.o(.text)
    .text                                    0x0800cb7e   Section        0  indicate_semi.o(.text)
    .text                                    0x0800cb88   Section        0  defsig_rtmem_inner.o(.text)
    .text                                    0x0800cbd8   Section        0  defsig_general.o(.text)
    .text                                    0x0800cc0a   Section        0  sys_wrch.o(.text)
    i._ZN13ScreenManagerD1Ev                 0x0800cc18   Section        0  device.o(i._ZN13ScreenManagerD1Ev)
    i._ZN7storage3MapILi2EN6Physic8DustPartEfED1Ev 0x0800cc24   Section        0  physic.o(i._ZN7storage3MapILi2EN6Physic8DustPartEfED1Ev)
    i.__ARM_fpclassify                       0x0800cc3c   Section        0  fpclassify.o(i.__ARM_fpclassify)
    i.__ARM_fpclassifyf                      0x0800cc6c   Section        0  fpclassifyf.o(i.__ARM_fpclassifyf)
    i.__aeabi_atexit                         0x0800cc92   Section        0  aeabi_atexit.o(i.__aeabi_atexit)
    i.__aeabi_vec_ctor_nocookie_nodtor       0x0800ccc4   Section        0  aeabi_vec_ctor_nocookie_nodtor.o(i.__aeabi_vec_ctor_nocookie_nodtor)
    i.__cxa_finalize                         0x0800cce8   Section        0  cxa_finalize.o(i.__cxa_finalize)
    i.__hardfp_atan                          0x0800cd30   Section        0  atan.o(i.__hardfp_atan)
    i.__hardfp_cosf                          0x0800d008   Section        0  cosf.o(i.__hardfp_cosf)
    i.__hardfp_sinf                          0x0800d158   Section        0  sinf.o(i.__hardfp_sinf)
    i.__kernel_poly                          0x0800d2e8   Section        0  poly.o(i.__kernel_poly)
    i.__mathlib_dbl_infnan                   0x0800d3e0   Section        0  dunder.o(i.__mathlib_dbl_infnan)
    i.__mathlib_dbl_underflow                0x0800d3f8   Section        0  dunder.o(i.__mathlib_dbl_underflow)
    i.__mathlib_flt_infnan                   0x0800d418   Section        0  funder.o(i.__mathlib_flt_infnan)
    i.__mathlib_flt_invalid                  0x0800d420   Section        0  funder.o(i.__mathlib_flt_invalid)
    i.__mathlib_flt_underflow                0x0800d430   Section        0  funder.o(i.__mathlib_flt_underflow)
    i.__mathlib_rredf2                       0x0800d440   Section        0  rredf.o(i.__mathlib_rredf2)
    i.fabs                                   0x0800d594   Section        0  fabs.o(i.fabs)
    t._ZN10Fill_ClassI6ScreenE4FillEt        0x0800d5ac   Section        0  main.o(t._ZN10Fill_ClassI6ScreenE4FillEt)
    t._ZN10Fill_ClassI6ScreenEC1Ev           0x0800d60a   Section        0  screen.o(t._ZN10Fill_ClassI6ScreenEC1Ev)
    t._ZN10Line_ClassI6ScreenE4InitEv        0x0800d60c   Section        0  screen.o(t._ZN10Line_ClassI6ScreenE4InitEv)
    t._ZN10Line_ClassI6ScreenEC1Ev           0x0800d620   Section        0  screen.o(t._ZN10Line_ClassI6ScreenEC1Ev)
    t._ZN10List_OrderI6ScreenhEC1Ev          0x0800d622   Section        0  screen.o(t._ZN10List_OrderI6ScreenhEC1Ev)
    t._ZN10List_OrderI6ScreenhED1Ev          0x0800d626   Section        0  device.o(t._ZN10List_OrderI6ScreenhED1Ev)
    t._ZN10List_OrderI6ScreenhEplEPS0_       0x0800d628   Section        0  screen.o(t._ZN10List_OrderI6ScreenhEplEPS0_)
    t._ZN10List_OrderI6ScreenhEplERS0_       0x0800d62c   Section        0  screen.o(t._ZN10List_OrderI6ScreenhEplERS0_)
    t._ZN10List_OrderIN6Physic8DustPartEfE5BeginEv 0x0800d64c   Section        0  physic.o(t._ZN10List_OrderIN6Physic8DustPartEfE5BeginEv)
    t._ZN10List_OrderIN6Physic8DustPartEfEC1Ev 0x0800d650   Section        0  physic.o(t._ZN10List_OrderIN6Physic8DustPartEfEC1Ev)
    t._ZN10List_OrderIN6Physic8DustPartEfED1Ev 0x0800d654   Section        0  physic.o(t._ZN10List_OrderIN6Physic8DustPartEfED1Ev)
    t._ZN10List_OrderIN6Physic8DustPartEfEplERS1_ 0x0800d656   Section        0  physic.o(t._ZN10List_OrderIN6Physic8DustPartEfEplERS1_)
    t._ZN10Screen_ObjI6ScreenEclERS0_        0x0800d676   Section        0  screen.o(t._ZN10Screen_ObjI6ScreenEclERS0_)
    t._ZN11Print_ClassI6ScreenE4InitEv       0x0800d69a   Section        0  screen.o(t._ZN11Print_ClassI6ScreenE4InitEv)
    t._ZN11Print_ClassI6ScreenE7UseFontEPK5tFont 0x0800d6d4   Section        0  main.o(t._ZN11Print_ClassI6ScreenE7UseFontEPK5tFont)
    t._ZN11Print_ClassI6ScreenEC1Ev          0x0800d6e0   Section        0  screen.o(t._ZN11Print_ClassI6ScreenEC1Ev)
    t._ZN12Bitmap_ClassI6ScreenE13NewBitmapOpenER8tTexture 0x0800d6e2   Section        0  main.o(t._ZN12Bitmap_ClassI6ScreenE13NewBitmapOpenER8tTexture)
    t._ZN12Bitmap_ClassI6ScreenE14NewBitmapCloseEv 0x0800d748   Section        0  main.o(t._ZN12Bitmap_ClassI6ScreenE14NewBitmapCloseEv)
    t._ZN12Bitmap_ClassI6ScreenE4FillI8tTextureEEiPT_t 0x0800d76e   Section        0  main.o(t._ZN12Bitmap_ClassI6ScreenE4FillI8tTextureEEiPT_t)
    t._ZN12Bitmap_ClassI6ScreenE4TileI8tTextureEEi3b2DPT_t 0x0800d79c   Section        0  main.o(t._ZN12Bitmap_ClassI6ScreenE4TileI8tTextureEEi3b2DPT_t)
    t._ZN12Bitmap_ClassI6ScreenE8SetScaleEff 0x0800d8f8   Section        0  main.o(t._ZN12Bitmap_ClassI6ScreenE8SetScaleEff)
    t._ZN12Bitmap_ClassI6ScreenEC1Ev         0x0800d912   Section        0  screen.o(t._ZN12Bitmap_ClassI6ScreenEC1Ev)
    t._ZN12Circle_ClassI6ScreenE3SqrEi       0x0800d914   Section        0  main.o(t._ZN12Circle_ClassI6ScreenE3SqrEi)
    t._ZN12Circle_ClassI6ScreenE4DrawE3b2Dft 0x0800d91a   Section        0  main.o(t._ZN12Circle_ClassI6ScreenE4DrawE3b2Dft)
    t._ZN12Circle_ClassI6ScreenE4DrawEssft   0x0800da4a   Section        0  main.o(t._ZN12Circle_ClassI6ScreenE4DrawEssft)
    t._ZN12Circle_ClassI6ScreenE5PixelEjjt   0x0800da62   Section        0  main.o(t._ZN12Circle_ClassI6ScreenE5PixelEjjt)
    t._ZN12Circle_ClassI6ScreenE5PointEiiiit 0x0800da78   Section        0  main.o(t._ZN12Circle_ClassI6ScreenE5PointEiiiit)
    t._ZN12Circle_ClassI6ScreenEC1Ev         0x0800dabe   Section        0  screen.o(t._ZN12Circle_ClassI6ScreenEC1Ev)
    t._ZN13List_IteratorI11MemoryChunkE3GetEj 0x0800dac0   Section        0  memory_alloc.o(t._ZN13List_IteratorI11MemoryChunkE3GetEj)
    t._ZN13List_IteratorI11MemoryChunkE6RemoveEPS0_ 0x0800dad8   Section        0  memory_alloc.o(t._ZN13List_IteratorI11MemoryChunkE6RemoveEPS0_)
    t._ZN13List_IteratorI11MemoryChunkE7ContainEv 0x0800daf8   Section        0  memory_alloc.o(t._ZN13List_IteratorI11MemoryChunkE7ContainEv)
    t._ZN13List_IteratorI11MemoryChunkE7GetLastEv 0x0800dafc   Section        0  memory_alloc.o(t._ZN13List_IteratorI11MemoryChunkE7GetLastEv)
    t._ZN13List_IteratorI11MemoryChunkE8GetFirstEv 0x0800db00   Section        0  memory_alloc.o(t._ZN13List_IteratorI11MemoryChunkE8GetFirstEv)
    t._ZN13List_IteratorI11MemoryChunkEC1Ev  0x0800db04   Section        0  device.o(t._ZN13List_IteratorI11MemoryChunkEC1Ev)
    t._ZN13List_IteratorI11MemoryChunkEmiEPS0_ 0x0800db06   Section        0  memory_alloc.o(t._ZN13List_IteratorI11MemoryChunkEmiEPS0_)
    t._ZN13List_IteratorI11MemoryChunkEmiERS0_ 0x0800db0a   Section        0  memory_alloc.o(t._ZN13List_IteratorI11MemoryChunkEmiERS0_)
    t._ZN13List_IteratorI11MemoryChunkEplEPS0_ 0x0800db58   Section        0  memory_alloc.o(t._ZN13List_IteratorI11MemoryChunkEplEPS0_)
    t._ZN13List_IteratorI11MemoryChunkEplERS0_ 0x0800db5c   Section        0  memory_alloc.o(t._ZN13List_IteratorI11MemoryChunkEplERS0_)
    t._ZN13List_IteratorI4NodeI6ScreenhEEC1Ev 0x0800dbbc   Section        0  screen.o(t._ZN13List_IteratorI4NodeI6ScreenhEEC1Ev)
    t._ZN13List_IteratorI4NodeI6ScreenhEEplEPS2_ 0x0800dbbe   Section        0  screen.o(t._ZN13List_IteratorI4NodeI6ScreenhEEplEPS2_)
    t._ZN13List_IteratorI4NodeI6ScreenhEEplERS2_ 0x0800dbc2   Section        0  screen.o(t._ZN13List_IteratorI4NodeI6ScreenhEEplERS2_)
    t._ZN13List_IteratorI4NodeIN6Physic8DustPartEfEE8GetFirstEv 0x0800dc22   Section        0  physic.o(t._ZN13List_IteratorI4NodeIN6Physic8DustPartEfEE8GetFirstEv)
    t._ZN13List_IteratorI4NodeIN6Physic8DustPartEfEEC1Ev 0x0800dc26   Section        0  physic.o(t._ZN13List_IteratorI4NodeIN6Physic8DustPartEfEEC1Ev)
    t._ZN13List_IteratorI4NodeIN6Physic8DustPartEfEEplEPS3_ 0x0800dc28   Section        0  physic.o(t._ZN13List_IteratorI4NodeIN6Physic8DustPartEfEEplEPS3_)
    t._ZN13List_IteratorI4NodeIN6Physic8DustPartEfEEplERS3_ 0x0800dc2c   Section        0  physic.o(t._ZN13List_IteratorI4NodeIN6Physic8DustPartEfEEplERS3_)
    t._ZN13List_IteratorI7Frame2DIsEEplEPS1_ 0x0800dc94   Section        0  main.o(t._ZN13List_IteratorI7Frame2DIsEEplEPS1_)
    t._ZN13List_IteratorI7Frame2DIsEEplERS1_ 0x0800dc98   Section        0  main.o(t._ZN13List_IteratorI7Frame2DIsEEplERS1_)
    t._ZN13List_IteratorIN6Physic6Ball2DEE3GetEj 0x0800dcf8   Section        0  physic.o(t._ZN13List_IteratorIN6Physic6Ball2DEE3GetEj)
    t._ZN13List_IteratorIN6Physic6Ball2DEE5ArrayI6lArrayIS1_EEERS2_PT_j 0x0800dd10   Section        0  physic.o(t._ZN13List_IteratorIN6Physic6Ball2DEE5ArrayI6lArrayIS1_EEERS2_PT_j)
    t._ZN13List_IteratorIN6Physic6Ball2DEE5ArrayI6lArrayIS1_EEERS2_RT_j 0x0800dd14   Section        0  physic.o(t._ZN13List_IteratorIN6Physic6Ball2DEE5ArrayI6lArrayIS1_EEERS2_RT_j)
    t._ZN13List_IteratorIN6Physic6Ball2DEE7ContainEv 0x0800dd36   Section        0  physic.o(t._ZN13List_IteratorIN6Physic6Ball2DEE7ContainEv)
    t._ZN13List_IteratorIN6Physic6Ball2DEE7GetNextEPS1_ 0x0800dd3a   Section        0  physic.o(t._ZN13List_IteratorIN6Physic6Ball2DEE7GetNextEPS1_)
    t._ZN13List_IteratorIN6Physic6Ball2DEE8GetFirstEv 0x0800dd48   Section        0  physic.o(t._ZN13List_IteratorIN6Physic6Ball2DEE8GetFirstEv)
    t._ZN13List_IteratorIN6Physic6Ball2DEEC1Ev 0x0800dd4c   Section        0  physic.o(t._ZN13List_IteratorIN6Physic6Ball2DEEC1Ev)
    t._ZN13List_IteratorIN6Physic6Ball2DEEmiEPS1_ 0x0800dd4e   Section        0  physic.o(t._ZN13List_IteratorIN6Physic6Ball2DEEmiEPS1_)
    t._ZN13List_IteratorIN6Physic6Ball2DEEmiERS1_ 0x0800dd52   Section        0  physic.o(t._ZN13List_IteratorIN6Physic6Ball2DEEmiERS1_)
    t._ZN13List_IteratorIN6Physic6Ball2DEEplEPS1_ 0x0800dda0   Section        0  physic.o(t._ZN13List_IteratorIN6Physic6Ball2DEEplEPS1_)
    t._ZN13List_IteratorIN6Physic6Ball2DEEplERS1_ 0x0800dda4   Section        0  physic.o(t._ZN13List_IteratorIN6Physic6Ball2DEEplERS1_)
    t._ZN14Frame2DManagerIsE6CreateE3b2D     0x0800de0c   Section        0  main.o(t._ZN14Frame2DManagerIsE6CreateE3b2D)
    t._ZN14Frame2DManagerIsEC1Ev             0x0800de3e   Section        0  device.o(t._ZN14Frame2DManagerIsEC1Ev)
    t._ZN14Frame2DManagerIsEclEv             0x0800de40   Section        0  main.o(t._ZN14Frame2DManagerIsEclEv)
    t._ZN15Rectangle_ClassI6ScreenE4InitEv   0x0800de42   Section        0  screen.o(t._ZN15Rectangle_ClassI6ScreenE4InitEv)
    t._ZN15Rectangle_ClassI6ScreenEC1Ev      0x0800de48   Section        0  screen.o(t._ZN15Rectangle_ClassI6ScreenEC1Ev)
    t._ZN6lArrayIN6Physic6Ball2DEE3AddEPS1_j 0x0800de4a   Section        0  physic.o(t._ZN6lArrayIN6Physic6Ball2DEE3AddEPS1_j)
    t._ZN6lArrayIN6Physic6Ball2DEED1Ev       0x0800de58   Section        0  physic.o(t._ZN6lArrayIN6Physic6Ball2DEED1Ev)
    t._ZN6lArrayIN6Physic6Ball2DEEclEj       0x0800de70   Section        0  physic.o(t._ZN6lArrayIN6Physic6Ball2DEEclEj)
    t._ZN6lArrayIN6Physic6Ball2DEEixEj       0x0800de8c   Section        0  physic.o(t._ZN6lArrayIN6Physic6Ball2DEEixEj)
    t._ZN7Frame2DIsE4GetHEv                  0x0800de94   Section        0  screen.o(t._ZN7Frame2DIsE4GetHEv)
    t._ZN7Frame2DIsE7GetBuffEv               0x0800dea2   Section        0  screen.o(t._ZN7Frame2DIsE7GetBuffEv)
    t._ZN7Frame2DIsE7GetRectEv               0x0800dea6   Section        0  tftili9486.o(t._ZN7Frame2DIsE7GetRectEv)
    t._ZN7Frame2DIsEclE3b2D                  0x0800decc   Section        0  main.o(t._ZN7Frame2DIsEclE3b2D)
    t._ZN7Frame2DIsEclE3b2DPt                0x0800def4   Section        0  main.o(t._ZN7Frame2DIsEclE3b2DPt)
    t._ZN7storage3MapILi2EN6Physic8DustPartEfE5BeginEv 0x0800df18   Section        0  physic.o(t._ZN7storage3MapILi2EN6Physic8DustPartEfE5BeginEv)
    t._ZN7storage3MapILi2EN6Physic8DustPartEfEC1Ev 0x0800df44   Section        0  physic.o(t._ZN7storage3MapILi2EN6Physic8DustPartEfEC1Ev)
    t._ZN7storage3MapILi2EN6Physic8DustPartEfEplEPS2_ 0x0800df54   Section        0  physic.o(t._ZN7storage3MapILi2EN6Physic8DustPartEfEplEPS2_)
    t._ZN7storage3MapILi2EN6Physic8DustPartEfEplERS2_ 0x0800df58   Section        0  physic.o(t._ZN7storage3MapILi2EN6Physic8DustPartEfEplERS2_)
    t._ZN9AllocatorI6ScreenE3NewEv           0x0800df78   Section        0  screen.o(t._ZN9AllocatorI6ScreenE3NewEv)
    t._ZN9AllocatorI6ScreenE3NewI8tTextureEEPT_j 0x0800df7e   Section        0  screen.o(t._ZN9AllocatorI6ScreenE3NewI8tTextureEEPT_j)
    t._ZN9AllocatorI6ScreenE6DeleteI8tTextureEEiPT_ 0x0800df86   Section        0  screen.o(t._ZN9AllocatorI6ScreenE6DeleteI8tTextureEEiPT_)
    t._ZN9AllocatorI7Frame2DIsEE3NewEj       0x0800df8c   Section        0  main.o(t._ZN9AllocatorI7Frame2DIsEE3NewEj)
    t._ZN9AllocatorIN6Physic6Ball2DEE3NewEv  0x0800df94   Section        0  physic.o(t._ZN9AllocatorIN6Physic6Ball2DEE3NewEv)
    t._ZN9AllocatorIN6Physic6Ball2DEE3NewI6lArrayIS1_EEEPT_v 0x0800df9a   Section        0  physic.o(t._ZN9AllocatorIN6Physic6Ball2DEE3NewI6lArrayIS1_EEEPT_v)
    t._ZN9AllocatorIN6Physic6Ball2DEE6DeleteI6lArrayIS1_EEEiPT_ 0x0800dfa0   Section        0  physic.o(t._ZN9AllocatorIN6Physic6Ball2DEE6DeleteI6lArrayIS1_EEEiPT_)
    t._ZN9AllocatorIN6Physic6Ball2DEE6DeleteIPS1_EEiPT_ 0x0800dfa6   Section        0  physic.o(t._ZN9AllocatorIN6Physic6Ball2DEE6DeleteIPS1_EEiPT_)
    t._ZN9AllocatorIN6Physic6Ball2DEE9NewlArrayEj 0x0800dfac   Section        0  physic.o(t._ZN9AllocatorIN6Physic6Ball2DEE9NewlArrayEj)
    t._ZN9AllocatorIN6Physic8DustPartEE3NewEv 0x0800dfb2   Section        0  physic.o(t._ZN9AllocatorIN6Physic8DustPartEE3NewEv)
    t._ZN9AllocatorIvE3NewI4NodeI6ScreenhEEEPT_v 0x0800dfb8   Section        0  screen.o(t._ZN9AllocatorIvE3NewI4NodeI6ScreenhEEEPT_v)
    t._ZN9AllocatorIvE3NewI4NodeIN6Physic8DustPartEfEEEPT_v 0x0800dfbe   Section        0  physic.o(t._ZN9AllocatorIvE3NewI4NodeIN6Physic8DustPartEfEEEPT_v)
    x$fpl$basic                              0x0800dfc4   Section       24  basic.o(x$fpl$basic)
    $v0                                      0x0800dfc4   Number         0  basic.o(x$fpl$basic)
    x$fpl$d2f                                0x0800dfdc   Section       98  d2f.o(x$fpl$d2f)
    $v0                                      0x0800dfdc   Number         0  d2f.o(x$fpl$d2f)
    x$fpl$dadd                               0x0800e040   Section      336  daddsub_clz.o(x$fpl$dadd)
    $v0                                      0x0800e040   Number         0  daddsub_clz.o(x$fpl$dadd)
    _dadd1                                   0x0800e051   Thumb Code     0  daddsub_clz.o(x$fpl$dadd)
    x$fpl$ddiv                               0x0800e190   Section      688  ddiv.o(x$fpl$ddiv)
    $v0                                      0x0800e190   Number         0  ddiv.o(x$fpl$ddiv)
    ddiv_entry                               0x0800e197   Thumb Code     0  ddiv.o(x$fpl$ddiv)
    x$fpl$dmul                               0x0800e440   Section      340  dmul.o(x$fpl$dmul)
    $v0                                      0x0800e440   Number         0  dmul.o(x$fpl$dmul)
    x$fpl$dnaninf                            0x0800e594   Section      156  dnaninf.o(x$fpl$dnaninf)
    $v0                                      0x0800e594   Number         0  dnaninf.o(x$fpl$dnaninf)
    x$fpl$dretinf                            0x0800e630   Section       12  dretinf.o(x$fpl$dretinf)
    $v0                                      0x0800e630   Number         0  dretinf.o(x$fpl$dretinf)
    x$fpl$drsb                               0x0800e63c   Section       22  daddsub_clz.o(x$fpl$drsb)
    $v0                                      0x0800e63c   Number         0  daddsub_clz.o(x$fpl$drsb)
    x$fpl$dsub                               0x0800e654   Section      468  daddsub_clz.o(x$fpl$dsub)
    $v0                                      0x0800e654   Number         0  daddsub_clz.o(x$fpl$dsub)
    _dsub1                                   0x0800e665   Thumb Code     0  daddsub_clz.o(x$fpl$dsub)
    x$fpl$f2d                                0x0800e828   Section       86  f2d.o(x$fpl$f2d)
    $v0                                      0x0800e828   Number         0  f2d.o(x$fpl$f2d)
    x$fpl$fnaninf                            0x0800e87e   Section      140  fnaninf.o(x$fpl$fnaninf)
    $v0                                      0x0800e87e   Number         0  fnaninf.o(x$fpl$fnaninf)
    x$fpl$fpinit                             0x0800e90a   Section       10  fpinit.o(x$fpl$fpinit)
    $v0                                      0x0800e90a   Number         0  fpinit.o(x$fpl$fpinit)
    x$fpl$fretinf                            0x0800e914   Section       10  fretinf.o(x$fpl$fretinf)
    $v0                                      0x0800e914   Number         0  fretinf.o(x$fpl$fretinf)
    .constdata                               0x0800e91e   Section     2048  main.o(.constdata)
    x$fpl$usenofp                            0x0800e91e   Section        0  usenofp.o(x$fpl$usenofp)
    image_data_Image0                        0x0800e91e   Data        2048  main.o(.constdata)
    .constdata                               0x0800f120   Section       68  main.o(.constdata)
    Image0                                   0x0800f120   Data           8  main.o(.constdata)
    Font_0x44                                0x0800f128   Data           8  main.o(.constdata)
    Font                                     0x0800f158   Data          12  main.o(.constdata)
    .constdata                               0x0800f164   Section      576  main.o(.constdata)
    image_data_Font_0x20                     0x0800f164   Data         576  main.o(.constdata)
    .constdata                               0x0800f3a4   Section        8  main.o(.constdata)
    Font_0x20                                0x0800f3a4   Data           8  main.o(.constdata)
    .constdata                               0x0800f3ac   Section      576  main.o(.constdata)
    image_data_Font_0x21                     0x0800f3ac   Data         576  main.o(.constdata)
    .constdata                               0x0800f5ec   Section        8  main.o(.constdata)
    Font_0x21                                0x0800f5ec   Data           8  main.o(.constdata)
    .constdata                               0x0800f5f4   Section      576  main.o(.constdata)
    image_data_Font_0x22                     0x0800f5f4   Data         576  main.o(.constdata)
    .constdata                               0x0800f834   Section        8  main.o(.constdata)
    Font_0x22                                0x0800f834   Data           8  main.o(.constdata)
    .constdata                               0x0800f83c   Section      576  main.o(.constdata)
    image_data_Font_0x23                     0x0800f83c   Data         576  main.o(.constdata)
    .constdata                               0x0800fa7c   Section        8  main.o(.constdata)
    Font_0x23                                0x0800fa7c   Data           8  main.o(.constdata)
    .constdata                               0x0800fa84   Section      576  main.o(.constdata)
    image_data_Font_0x24                     0x0800fa84   Data         576  main.o(.constdata)
    .constdata                               0x0800fcc4   Section        8  main.o(.constdata)
    Font_0x24                                0x0800fcc4   Data           8  main.o(.constdata)
    .constdata                               0x0800fccc   Section      576  main.o(.constdata)
    image_data_Font_0x25                     0x0800fccc   Data         576  main.o(.constdata)
    .constdata                               0x0800ff0c   Section        8  main.o(.constdata)
    Font_0x25                                0x0800ff0c   Data           8  main.o(.constdata)
    .constdata                               0x0800ff14   Section      576  main.o(.constdata)
    image_data_Font_0x26                     0x0800ff14   Data         576  main.o(.constdata)
    .constdata                               0x08010154   Section        8  main.o(.constdata)
    Font_0x26                                0x08010154   Data           8  main.o(.constdata)
    .constdata                               0x0801015c   Section      576  main.o(.constdata)
    image_data_Font_0x27                     0x0801015c   Data         576  main.o(.constdata)
    .constdata                               0x0801039c   Section        8  main.o(.constdata)
    Font_0x27                                0x0801039c   Data           8  main.o(.constdata)
    .constdata                               0x080103a4   Section      576  main.o(.constdata)
    image_data_Font_0x28                     0x080103a4   Data         576  main.o(.constdata)
    .constdata                               0x080105e4   Section        8  main.o(.constdata)
    Font_0x28                                0x080105e4   Data           8  main.o(.constdata)
    .constdata                               0x080105ec   Section      576  main.o(.constdata)
    image_data_Font_0x29                     0x080105ec   Data         576  main.o(.constdata)
    .constdata                               0x0801082c   Section        8  main.o(.constdata)
    Font_0x29                                0x0801082c   Data           8  main.o(.constdata)
    .constdata                               0x08010834   Section      576  main.o(.constdata)
    image_data_Font_0x2a                     0x08010834   Data         576  main.o(.constdata)
    .constdata                               0x08010a74   Section        8  main.o(.constdata)
    Font_0x2a                                0x08010a74   Data           8  main.o(.constdata)
    .constdata                               0x08010a7c   Section      576  main.o(.constdata)
    image_data_Font_0x2b                     0x08010a7c   Data         576  main.o(.constdata)
    .constdata                               0x08010cbc   Section        8  main.o(.constdata)
    Font_0x2b                                0x08010cbc   Data           8  main.o(.constdata)
    .constdata                               0x08010cc4   Section      576  main.o(.constdata)
    image_data_Font_0x2c                     0x08010cc4   Data         576  main.o(.constdata)
    .constdata                               0x08010f04   Section        8  main.o(.constdata)
    Font_0x2c                                0x08010f04   Data           8  main.o(.constdata)
    .constdata                               0x08010f0c   Section      576  main.o(.constdata)
    image_data_Font_0x2d                     0x08010f0c   Data         576  main.o(.constdata)
    .constdata                               0x0801114c   Section        8  main.o(.constdata)
    Font_0x2d                                0x0801114c   Data           8  main.o(.constdata)
    .constdata                               0x08011154   Section      576  main.o(.constdata)
    image_data_Font_0x2e                     0x08011154   Data         576  main.o(.constdata)
    .constdata                               0x08011394   Section        8  main.o(.constdata)
    Font_0x2e                                0x08011394   Data           8  main.o(.constdata)
    .constdata                               0x0801139c   Section      576  main.o(.constdata)
    image_data_Font_0x2f                     0x0801139c   Data         576  main.o(.constdata)
    .constdata                               0x080115dc   Section        8  main.o(.constdata)
    Font_0x2f                                0x080115dc   Data           8  main.o(.constdata)
    .constdata                               0x080115e4   Section      576  main.o(.constdata)
    image_data_Font_0x30                     0x080115e4   Data         576  main.o(.constdata)
    .constdata                               0x08011824   Section        8  main.o(.constdata)
    Font_0x30                                0x08011824   Data           8  main.o(.constdata)
    .constdata                               0x0801182c   Section      576  main.o(.constdata)
    image_data_Font_0x31                     0x0801182c   Data         576  main.o(.constdata)
    .constdata                               0x08011a6c   Section        8  main.o(.constdata)
    Font_0x31                                0x08011a6c   Data           8  main.o(.constdata)
    .constdata                               0x08011a74   Section      576  main.o(.constdata)
    image_data_Font_0x32                     0x08011a74   Data         576  main.o(.constdata)
    .constdata                               0x08011cb4   Section        8  main.o(.constdata)
    Font_0x32                                0x08011cb4   Data           8  main.o(.constdata)
    .constdata                               0x08011cbc   Section      576  main.o(.constdata)
    image_data_Font_0x33                     0x08011cbc   Data         576  main.o(.constdata)
    .constdata                               0x08011efc   Section        8  main.o(.constdata)
    Font_0x33                                0x08011efc   Data           8  main.o(.constdata)
    .constdata                               0x08011f04   Section      576  main.o(.constdata)
    image_data_Font_0x34                     0x08011f04   Data         576  main.o(.constdata)
    .constdata                               0x08012144   Section        8  main.o(.constdata)
    Font_0x34                                0x08012144   Data           8  main.o(.constdata)
    .constdata                               0x0801214c   Section      576  main.o(.constdata)
    image_data_Font_0x35                     0x0801214c   Data         576  main.o(.constdata)
    .constdata                               0x0801238c   Section        8  main.o(.constdata)
    Font_0x35                                0x0801238c   Data           8  main.o(.constdata)
    .constdata                               0x08012394   Section      576  main.o(.constdata)
    image_data_Font_0x36                     0x08012394   Data         576  main.o(.constdata)
    .constdata                               0x080125d4   Section        8  main.o(.constdata)
    Font_0x36                                0x080125d4   Data           8  main.o(.constdata)
    .constdata                               0x080125dc   Section      576  main.o(.constdata)
    image_data_Font_0x37                     0x080125dc   Data         576  main.o(.constdata)
    .constdata                               0x0801281c   Section        8  main.o(.constdata)
    Font_0x37                                0x0801281c   Data           8  main.o(.constdata)
    .constdata                               0x08012824   Section      576  main.o(.constdata)
    image_data_Font_0x38                     0x08012824   Data         576  main.o(.constdata)
    .constdata                               0x08012a64   Section        8  main.o(.constdata)
    Font_0x38                                0x08012a64   Data           8  main.o(.constdata)
    .constdata                               0x08012a6c   Section      576  main.o(.constdata)
    image_data_Font_0x39                     0x08012a6c   Data         576  main.o(.constdata)
    .constdata                               0x08012cac   Section        8  main.o(.constdata)
    Font_0x39                                0x08012cac   Data           8  main.o(.constdata)
    .constdata                               0x08012cb4   Section      576  main.o(.constdata)
    image_data_Font_0x3a                     0x08012cb4   Data         576  main.o(.constdata)
    .constdata                               0x08012ef4   Section        8  main.o(.constdata)
    Font_0x3a                                0x08012ef4   Data           8  main.o(.constdata)
    .constdata                               0x08012efc   Section      576  main.o(.constdata)
    image_data_Font_0x3b                     0x08012efc   Data         576  main.o(.constdata)
    .constdata                               0x0801313c   Section        8  main.o(.constdata)
    Font_0x3b                                0x0801313c   Data           8  main.o(.constdata)
    .constdata                               0x08013144   Section      576  main.o(.constdata)
    image_data_Font_0x3c                     0x08013144   Data         576  main.o(.constdata)
    .constdata                               0x08013384   Section        8  main.o(.constdata)
    Font_0x3c                                0x08013384   Data           8  main.o(.constdata)
    .constdata                               0x0801338c   Section      576  main.o(.constdata)
    image_data_Font_0x3d                     0x0801338c   Data         576  main.o(.constdata)
    .constdata                               0x080135cc   Section        8  main.o(.constdata)
    Font_0x3d                                0x080135cc   Data           8  main.o(.constdata)
    .constdata                               0x080135d4   Section      576  main.o(.constdata)
    image_data_Font_0x3e                     0x080135d4   Data         576  main.o(.constdata)
    .constdata                               0x08013814   Section        8  main.o(.constdata)
    Font_0x3e                                0x08013814   Data           8  main.o(.constdata)
    .constdata                               0x0801381c   Section      576  main.o(.constdata)
    image_data_Font_0x3f                     0x0801381c   Data         576  main.o(.constdata)
    .constdata                               0x08013a5c   Section        8  main.o(.constdata)
    Font_0x3f                                0x08013a5c   Data           8  main.o(.constdata)
    .constdata                               0x08013a64   Section      576  main.o(.constdata)
    image_data_Font_0x40                     0x08013a64   Data         576  main.o(.constdata)
    .constdata                               0x08013ca4   Section        8  main.o(.constdata)
    Font_0x40                                0x08013ca4   Data           8  main.o(.constdata)
    .constdata                               0x08013cac   Section      576  main.o(.constdata)
    image_data_Font_0x41                     0x08013cac   Data         576  main.o(.constdata)
    .constdata                               0x08013eec   Section        8  main.o(.constdata)
    Font_0x41                                0x08013eec   Data           8  main.o(.constdata)
    .constdata                               0x08013ef4   Section      576  main.o(.constdata)
    image_data_Font_0x42                     0x08013ef4   Data         576  main.o(.constdata)
    .constdata                               0x08014134   Section        8  main.o(.constdata)
    Font_0x42                                0x08014134   Data           8  main.o(.constdata)
    .constdata                               0x0801413c   Section      576  main.o(.constdata)
    image_data_Font_0x43                     0x0801413c   Data         576  main.o(.constdata)
    .constdata                               0x0801437c   Section        8  main.o(.constdata)
    Font_0x43                                0x0801437c   Data           8  main.o(.constdata)
    .constdata                               0x08014384   Section      576  main.o(.constdata)
    image_data_Font_0x44                     0x08014384   Data         576  main.o(.constdata)
    .constdata                               0x080145c4   Section      576  main.o(.constdata)
    image_data_Font_0x45                     0x080145c4   Data         576  main.o(.constdata)
    .constdata                               0x08014804   Section        8  main.o(.constdata)
    Font_0x45                                0x08014804   Data           8  main.o(.constdata)
    .constdata                               0x0801480c   Section      576  main.o(.constdata)
    image_data_Font_0x46                     0x0801480c   Data         576  main.o(.constdata)
    .constdata                               0x08014a4c   Section        8  main.o(.constdata)
    Font_0x46                                0x08014a4c   Data           8  main.o(.constdata)
    .constdata                               0x08014a54   Section      576  main.o(.constdata)
    image_data_Font_0x47                     0x08014a54   Data         576  main.o(.constdata)
    .constdata                               0x08014c94   Section        8  main.o(.constdata)
    Font_0x47                                0x08014c94   Data           8  main.o(.constdata)
    .constdata                               0x08014c9c   Section      576  main.o(.constdata)
    image_data_Font_0x48                     0x08014c9c   Data         576  main.o(.constdata)
    .constdata                               0x08014edc   Section        8  main.o(.constdata)
    Font_0x48                                0x08014edc   Data           8  main.o(.constdata)
    .constdata                               0x08014ee4   Section      576  main.o(.constdata)
    image_data_Font_0x49                     0x08014ee4   Data         576  main.o(.constdata)
    .constdata                               0x08015124   Section        8  main.o(.constdata)
    Font_0x49                                0x08015124   Data           8  main.o(.constdata)
    .constdata                               0x0801512c   Section      576  main.o(.constdata)
    image_data_Font_0x4a                     0x0801512c   Data         576  main.o(.constdata)
    .constdata                               0x0801536c   Section        8  main.o(.constdata)
    Font_0x4a                                0x0801536c   Data           8  main.o(.constdata)
    .constdata                               0x08015374   Section      576  main.o(.constdata)
    image_data_Font_0x4b                     0x08015374   Data         576  main.o(.constdata)
    .constdata                               0x080155b4   Section        8  main.o(.constdata)
    Font_0x4b                                0x080155b4   Data           8  main.o(.constdata)
    .constdata                               0x080155bc   Section      576  main.o(.constdata)
    image_data_Font_0x4c                     0x080155bc   Data         576  main.o(.constdata)
    .constdata                               0x080157fc   Section        8  main.o(.constdata)
    Font_0x4c                                0x080157fc   Data           8  main.o(.constdata)
    .constdata                               0x08015804   Section      576  main.o(.constdata)
    image_data_Font_0x4d                     0x08015804   Data         576  main.o(.constdata)
    .constdata                               0x08015a44   Section        8  main.o(.constdata)
    Font_0x4d                                0x08015a44   Data           8  main.o(.constdata)
    .constdata                               0x08015a4c   Section      576  main.o(.constdata)
    image_data_Font_0x4e                     0x08015a4c   Data         576  main.o(.constdata)
    .constdata                               0x08015c8c   Section        8  main.o(.constdata)
    Font_0x4e                                0x08015c8c   Data           8  main.o(.constdata)
    .constdata                               0x08015c94   Section      576  main.o(.constdata)
    image_data_Font_0x4f                     0x08015c94   Data         576  main.o(.constdata)
    .constdata                               0x08015ed4   Section        8  main.o(.constdata)
    Font_0x4f                                0x08015ed4   Data           8  main.o(.constdata)
    .constdata                               0x08015edc   Section      576  main.o(.constdata)
    image_data_Font_0x50                     0x08015edc   Data         576  main.o(.constdata)
    .constdata                               0x0801611c   Section        8  main.o(.constdata)
    Font_0x50                                0x0801611c   Data           8  main.o(.constdata)
    .constdata                               0x08016124   Section      576  main.o(.constdata)
    image_data_Font_0x51                     0x08016124   Data         576  main.o(.constdata)
    .constdata                               0x08016364   Section        8  main.o(.constdata)
    Font_0x51                                0x08016364   Data           8  main.o(.constdata)
    .constdata                               0x0801636c   Section      576  main.o(.constdata)
    image_data_Font_0x52                     0x0801636c   Data         576  main.o(.constdata)
    .constdata                               0x080165ac   Section        8  main.o(.constdata)
    Font_0x52                                0x080165ac   Data           8  main.o(.constdata)
    .constdata                               0x080165b4   Section      576  main.o(.constdata)
    image_data_Font_0x53                     0x080165b4   Data         576  main.o(.constdata)
    .constdata                               0x080167f4   Section        8  main.o(.constdata)
    Font_0x53                                0x080167f4   Data           8  main.o(.constdata)
    .constdata                               0x080167fc   Section      576  main.o(.constdata)
    image_data_Font_0x54                     0x080167fc   Data         576  main.o(.constdata)
    .constdata                               0x08016a3c   Section        8  main.o(.constdata)
    Font_0x54                                0x08016a3c   Data           8  main.o(.constdata)
    .constdata                               0x08016a44   Section      576  main.o(.constdata)
    image_data_Font_0x55                     0x08016a44   Data         576  main.o(.constdata)
    .constdata                               0x08016c84   Section        8  main.o(.constdata)
    Font_0x55                                0x08016c84   Data           8  main.o(.constdata)
    .constdata                               0x08016c8c   Section      576  main.o(.constdata)
    image_data_Font_0x56                     0x08016c8c   Data         576  main.o(.constdata)
    .constdata                               0x08016ecc   Section        8  main.o(.constdata)
    Font_0x56                                0x08016ecc   Data           8  main.o(.constdata)
    .constdata                               0x08016ed4   Section      576  main.o(.constdata)
    image_data_Font_0x57                     0x08016ed4   Data         576  main.o(.constdata)
    .constdata                               0x08017114   Section        8  main.o(.constdata)
    Font_0x57                                0x08017114   Data           8  main.o(.constdata)
    .constdata                               0x0801711c   Section      576  main.o(.constdata)
    image_data_Font_0x58                     0x0801711c   Data         576  main.o(.constdata)
    .constdata                               0x0801735c   Section        8  main.o(.constdata)
    Font_0x58                                0x0801735c   Data           8  main.o(.constdata)
    .constdata                               0x08017364   Section      576  main.o(.constdata)
    image_data_Font_0x59                     0x08017364   Data         576  main.o(.constdata)
    .constdata                               0x080175a4   Section        8  main.o(.constdata)
    Font_0x59                                0x080175a4   Data           8  main.o(.constdata)
    .constdata                               0x080175ac   Section      576  main.o(.constdata)
    image_data_Font_0x5a                     0x080175ac   Data         576  main.o(.constdata)
    .constdata                               0x080177ec   Section        8  main.o(.constdata)
    Font_0x5a                                0x080177ec   Data           8  main.o(.constdata)
    .constdata                               0x080177f4   Section      576  main.o(.constdata)
    image_data_Font_0x5b                     0x080177f4   Data         576  main.o(.constdata)
    .constdata                               0x08017a34   Section        8  main.o(.constdata)
    Font_0x5b                                0x08017a34   Data           8  main.o(.constdata)
    .constdata                               0x08017a3c   Section      576  main.o(.constdata)
    image_data_Font_0x5c                     0x08017a3c   Data         576  main.o(.constdata)
    .constdata                               0x08017c7c   Section        8  main.o(.constdata)
    Font_0x5c                                0x08017c7c   Data           8  main.o(.constdata)
    .constdata                               0x08017c84   Section      576  main.o(.constdata)
    image_data_Font_0x5d                     0x08017c84   Data         576  main.o(.constdata)
    .constdata                               0x08017ec4   Section        8  main.o(.constdata)
    Font_0x5d                                0x08017ec4   Data           8  main.o(.constdata)
    .constdata                               0x08017ecc   Section      576  main.o(.constdata)
    image_data_Font_0x5e                     0x08017ecc   Data         576  main.o(.constdata)
    .constdata                               0x0801810c   Section        8  main.o(.constdata)
    Font_0x5e                                0x0801810c   Data           8  main.o(.constdata)
    .constdata                               0x08018114   Section      576  main.o(.constdata)
    image_data_Font_0x5f                     0x08018114   Data         576  main.o(.constdata)
    .constdata                               0x08018354   Section        8  main.o(.constdata)
    Font_0x5f                                0x08018354   Data           8  main.o(.constdata)
    .constdata                               0x0801835c   Section      576  main.o(.constdata)
    image_data_Font_0x60                     0x0801835c   Data         576  main.o(.constdata)
    .constdata                               0x0801859c   Section        8  main.o(.constdata)
    Font_0x60                                0x0801859c   Data           8  main.o(.constdata)
    .constdata                               0x080185a4   Section      576  main.o(.constdata)
    image_data_Font_0x61                     0x080185a4   Data         576  main.o(.constdata)
    .constdata                               0x080187e4   Section        8  main.o(.constdata)
    Font_0x61                                0x080187e4   Data           8  main.o(.constdata)
    .constdata                               0x080187ec   Section      576  main.o(.constdata)
    image_data_Font_0x62                     0x080187ec   Data         576  main.o(.constdata)
    .constdata                               0x08018a2c   Section        8  main.o(.constdata)
    Font_0x62                                0x08018a2c   Data           8  main.o(.constdata)
    .constdata                               0x08018a34   Section      576  main.o(.constdata)
    image_data_Font_0x63                     0x08018a34   Data         576  main.o(.constdata)
    .constdata                               0x08018c74   Section        8  main.o(.constdata)
    Font_0x63                                0x08018c74   Data           8  main.o(.constdata)
    .constdata                               0x08018c7c   Section      576  main.o(.constdata)
    image_data_Font_0x64                     0x08018c7c   Data         576  main.o(.constdata)
    .constdata                               0x08018ebc   Section        8  main.o(.constdata)
    Font_0x64                                0x08018ebc   Data           8  main.o(.constdata)
    .constdata                               0x08018ec4   Section      576  main.o(.constdata)
    image_data_Font_0x65                     0x08018ec4   Data         576  main.o(.constdata)
    .constdata                               0x08019104   Section        8  main.o(.constdata)
    Font_0x65                                0x08019104   Data           8  main.o(.constdata)
    .constdata                               0x0801910c   Section      576  main.o(.constdata)
    image_data_Font_0x66                     0x0801910c   Data         576  main.o(.constdata)
    .constdata                               0x0801934c   Section        8  main.o(.constdata)
    Font_0x66                                0x0801934c   Data           8  main.o(.constdata)
    .constdata                               0x08019354   Section      576  main.o(.constdata)
    image_data_Font_0x67                     0x08019354   Data         576  main.o(.constdata)
    .constdata                               0x08019594   Section        8  main.o(.constdata)
    Font_0x67                                0x08019594   Data           8  main.o(.constdata)
    .constdata                               0x0801959c   Section      576  main.o(.constdata)
    image_data_Font_0x68                     0x0801959c   Data         576  main.o(.constdata)
    .constdata                               0x080197dc   Section        8  main.o(.constdata)
    Font_0x68                                0x080197dc   Data           8  main.o(.constdata)
    .constdata                               0x080197e4   Section      576  main.o(.constdata)
    image_data_Font_0x69                     0x080197e4   Data         576  main.o(.constdata)
    .constdata                               0x08019a24   Section        8  main.o(.constdata)
    Font_0x69                                0x08019a24   Data           8  main.o(.constdata)
    .constdata                               0x08019a2c   Section      576  main.o(.constdata)
    image_data_Font_0x6a                     0x08019a2c   Data         576  main.o(.constdata)
    .constdata                               0x08019c6c   Section        8  main.o(.constdata)
    Font_0x6a                                0x08019c6c   Data           8  main.o(.constdata)
    .constdata                               0x08019c74   Section      576  main.o(.constdata)
    image_data_Font_0x6b                     0x08019c74   Data         576  main.o(.constdata)
    .constdata                               0x08019eb4   Section        8  main.o(.constdata)
    Font_0x6b                                0x08019eb4   Data           8  main.o(.constdata)
    .constdata                               0x08019ebc   Section      576  main.o(.constdata)
    image_data_Font_0x6c                     0x08019ebc   Data         576  main.o(.constdata)
    .constdata                               0x0801a0fc   Section        8  main.o(.constdata)
    Font_0x6c                                0x0801a0fc   Data           8  main.o(.constdata)
    .constdata                               0x0801a104   Section      576  main.o(.constdata)
    image_data_Font_0x6d                     0x0801a104   Data         576  main.o(.constdata)
    .constdata                               0x0801a344   Section        8  main.o(.constdata)
    Font_0x6d                                0x0801a344   Data           8  main.o(.constdata)
    .constdata                               0x0801a34c   Section      576  main.o(.constdata)
    image_data_Font_0x6e                     0x0801a34c   Data         576  main.o(.constdata)
    .constdata                               0x0801a58c   Section        8  main.o(.constdata)
    Font_0x6e                                0x0801a58c   Data           8  main.o(.constdata)
    .constdata                               0x0801a594   Section      576  main.o(.constdata)
    image_data_Font_0x6f                     0x0801a594   Data         576  main.o(.constdata)
    .constdata                               0x0801a7d4   Section        8  main.o(.constdata)
    Font_0x6f                                0x0801a7d4   Data           8  main.o(.constdata)
    .constdata                               0x0801a7dc   Section      576  main.o(.constdata)
    image_data_Font_0x70                     0x0801a7dc   Data         576  main.o(.constdata)
    .constdata                               0x0801aa1c   Section        8  main.o(.constdata)
    Font_0x70                                0x0801aa1c   Data           8  main.o(.constdata)
    .constdata                               0x0801aa24   Section      576  main.o(.constdata)
    image_data_Font_0x71                     0x0801aa24   Data         576  main.o(.constdata)
    .constdata                               0x0801ac64   Section        8  main.o(.constdata)
    Font_0x71                                0x0801ac64   Data           8  main.o(.constdata)
    .constdata                               0x0801ac6c   Section      576  main.o(.constdata)
    image_data_Font_0x72                     0x0801ac6c   Data         576  main.o(.constdata)
    .constdata                               0x0801aeac   Section        8  main.o(.constdata)
    Font_0x72                                0x0801aeac   Data           8  main.o(.constdata)
    .constdata                               0x0801aeb4   Section      576  main.o(.constdata)
    image_data_Font_0x73                     0x0801aeb4   Data         576  main.o(.constdata)
    .constdata                               0x0801b0f4   Section        8  main.o(.constdata)
    Font_0x73                                0x0801b0f4   Data           8  main.o(.constdata)
    .constdata                               0x0801b0fc   Section      576  main.o(.constdata)
    image_data_Font_0x74                     0x0801b0fc   Data         576  main.o(.constdata)
    .constdata                               0x0801b33c   Section        8  main.o(.constdata)
    Font_0x74                                0x0801b33c   Data           8  main.o(.constdata)
    .constdata                               0x0801b344   Section      576  main.o(.constdata)
    image_data_Font_0x75                     0x0801b344   Data         576  main.o(.constdata)
    .constdata                               0x0801b584   Section        8  main.o(.constdata)
    Font_0x75                                0x0801b584   Data           8  main.o(.constdata)
    .constdata                               0x0801b58c   Section      576  main.o(.constdata)
    image_data_Font_0x76                     0x0801b58c   Data         576  main.o(.constdata)
    .constdata                               0x0801b7cc   Section        8  main.o(.constdata)
    Font_0x76                                0x0801b7cc   Data           8  main.o(.constdata)
    .constdata                               0x0801b7d4   Section      576  main.o(.constdata)
    image_data_Font_0x77                     0x0801b7d4   Data         576  main.o(.constdata)
    .constdata                               0x0801ba14   Section        8  main.o(.constdata)
    Font_0x77                                0x0801ba14   Data           8  main.o(.constdata)
    .constdata                               0x0801ba1c   Section      576  main.o(.constdata)
    image_data_Font_0x78                     0x0801ba1c   Data         576  main.o(.constdata)
    .constdata                               0x0801bc5c   Section        8  main.o(.constdata)
    Font_0x78                                0x0801bc5c   Data           8  main.o(.constdata)
    .constdata                               0x0801bc64   Section      576  main.o(.constdata)
    image_data_Font_0x79                     0x0801bc64   Data         576  main.o(.constdata)
    .constdata                               0x0801bea4   Section        8  main.o(.constdata)
    Font_0x79                                0x0801bea4   Data           8  main.o(.constdata)
    .constdata                               0x0801beac   Section      576  main.o(.constdata)
    image_data_Font_0x7a                     0x0801beac   Data         576  main.o(.constdata)
    .constdata                               0x0801c0ec   Section        8  main.o(.constdata)
    Font_0x7a                                0x0801c0ec   Data           8  main.o(.constdata)
    .constdata                               0x0801c0f4   Section      576  main.o(.constdata)
    image_data_Font_0x7b                     0x0801c0f4   Data         576  main.o(.constdata)
    .constdata                               0x0801c334   Section        8  main.o(.constdata)
    Font_0x7b                                0x0801c334   Data           8  main.o(.constdata)
    .constdata                               0x0801c33c   Section      576  main.o(.constdata)
    image_data_Font_0x7c                     0x0801c33c   Data         576  main.o(.constdata)
    .constdata                               0x0801c57c   Section        8  main.o(.constdata)
    Font_0x7c                                0x0801c57c   Data           8  main.o(.constdata)
    .constdata                               0x0801c584   Section      576  main.o(.constdata)
    image_data_Font_0x7d                     0x0801c584   Data         576  main.o(.constdata)
    .constdata                               0x0801c7c4   Section        8  main.o(.constdata)
    Font_0x7d                                0x0801c7c4   Data           8  main.o(.constdata)
    .constdata                               0x0801c7cc   Section      576  main.o(.constdata)
    image_data_Font_0x7e                     0x0801c7cc   Data         576  main.o(.constdata)
    .constdata                               0x0801ca0c   Section        8  main.o(.constdata)
    Font_0x7e                                0x0801ca0c   Data           8  main.o(.constdata)
    .constdata                               0x0801ca14   Section      760  main.o(.constdata)
    Font_array                               0x0801ca14   Data         760  main.o(.constdata)
    .constdata                               0x0801cd0c   Section       16  stm32f4xx_hal_rcc.o(.constdata)
    APBAHBPrescTable                         0x0801cd0c   Data          16  stm32f4xx_hal_rcc.o(.constdata)
    .constdata                               0x0801cd1c   Section       32  physic.o(.constdata)
    .constdata                               0x0801cd40   Section      152  atan.o(.constdata)
    atanhi                                   0x0801cd40   Data          32  atan.o(.constdata)
    atanlo                                   0x0801cd60   Data          32  atan.o(.constdata)
    aTodd                                    0x0801cd80   Data          40  atan.o(.constdata)
    aTeven                                   0x0801cda8   Data          48  atan.o(.constdata)
    .constdata                               0x0801cdd8   Section       32  rredf.o(.constdata)
    twooverpi                                0x0801cdd8   Data          32  rredf.o(.constdata)
    .constdata__ZTV12LcdDriverDef            0x0801cdf8   Section       16  device.o(.constdata__ZTV12LcdDriverDef)
    .constdata__ZTVN6Physic11Ball2DGroupE    0x0801ce08   Section       12  main.o(.constdata__ZTVN6Physic11Ball2DGroupE)
    .init_array                              0x0801ce34   Section        4  main.o(.init_array)
    .init_array                              0x0801ce38   Section        4  device.o(.init_array)
    .init_array                              0x0801ce3c   Section        0  init_aeabi.o(.init_array)
    .data                                    0x20000000   Section        8  main.o(.data)
    .data                                    0x20000008   Section        4  stm32f4xx_hal.o(.data)
    uwTick                                   0x20000008   Data           4  stm32f4xx_hal.o(.data)
    .data                                    0x2000000c   Section        1  device.o(.data)
    .data                                    0x20000010   Section       20  system_stm32f4xx.o(.data)
    AHBPrescTable                            0x20000014   Data          16  system_stm32f4xx.o(.data)
    .bss                                     0x20000024   Section    41460  main.o(.bss)
    .bss                                     0x2000a218   Section      464  init.o(.bss)
    .bss                                     0x2000a3e8   Section       20  gpio_ex.o(.bss)
    GPIO_InitStruct                          0x2000a3e8   Data          20  gpio_ex.o(.bss)
    .bss                                     0x2000a3fc   Section      100  device.o(.bss)
    .bss                                     0x2000a460   Section      228  rand.o(.bss)
    .bss                                     0x2000a544   Section       96  libspace.o(.bss)
    HEAP                                     0x2000a5a8   Section      512  startup_stm32f417xx.o(HEAP)
    Heap_Mem                                 0x2000a5a8   Data         512  startup_stm32f417xx.o(HEAP)
    STACK                                    0x2000a7a8   Section     1024  startup_stm32f417xx.o(STACK)
    Stack_Mem                                0x2000a7a8   Data        1024  startup_stm32f417xx.o(STACK)
    __initial_sp                             0x2000aba8   Data           0  startup_stm32f417xx.o(STACK)

    Global Symbols

    Symbol Name                              Value     Ov Type        Size  Object(Section)

    BuildAttributes$$THM_ISAv4$E$P$D$K$B$S$7EM$VFPi3$EXTD16$VFPS$VFMA$PE$A:L22UL41UL21$X:L11$S22US41US21$IEEE1$IW$USESV6$~STKCKD$USESV7$~SHL$OTIME$ROPI$IEEEX$EBA8$UX$STANDARDLIB$REQ8$PRES8$EABIv2 0x00000000   Number         0  anon$$obj.o ABSOLUTE
    __ARM_use_no_argv                        0x00000000   Number         0  main.o ABSOLUTE
    SHT$$ARM_EXIDX$$Base                      - Undefined Reference
    SHT$$ARM_EXIDX$$Limit                     - Undefined Reference
    __ARM::default_unexpected_handler()       - Undefined Weak Reference
    __ARM_exceptions_buffer_required          - Undefined Weak Reference
    __ARM_exceptions_init                     - Undefined Weak Reference
    __aeabi_unwind_cpp_pr1                    - Undefined Weak Reference
    __aeabi_unwind_cpp_pr2                    - Undefined Weak Reference
    __alloca_initialize                       - Undefined Weak Reference
    __arm_preinit_                            - Undefined Weak Reference
    __cxa_begin_cleanup                       - Undefined Weak Reference
    __cxa_call_unexpected                     - Undefined Weak Reference
    __cxa_type_match                          - Undefined Weak Reference
    __rt_locale                               - Undefined Weak Reference
    __sigvec_lookup                           - Undefined Weak Reference
    __user_heap_extent                        - Undefined Weak Reference
    _atexit_init                              - Undefined Weak Reference
    _call_atexit_fns                          - Undefined Weak Reference
    _clock_init                               - Undefined Weak Reference
    _fp_trap_init                             - Undefined Weak Reference
    _fp_trap_shutdown                         - Undefined Weak Reference
    _get_lc_collate                           - Undefined Weak Reference
    _get_lc_ctype                             - Undefined Weak Reference
    _get_lc_monetary                          - Undefined Weak Reference
    _get_lc_numeric                           - Undefined Weak Reference
    _get_lc_time                              - Undefined Weak Reference
    _getenv_init                              - Undefined Weak Reference
    _handle_redirection                       - Undefined Weak Reference
    _initio                                   - Undefined Weak Reference
    _mutex_acquire                            - Undefined Weak Reference
    _mutex_free                               - Undefined Weak Reference
    _mutex_release                            - Undefined Weak Reference
    _signal_finish                            - Undefined Weak Reference
    _signal_init                              - Undefined Weak Reference
    _terminateio                              - Undefined Weak Reference
    __Vectors_Size                           0x00000188   Number         0  startup_stm32f417xx.o ABSOLUTE
    __Vectors                                0x08000000   Data           4  startup_stm32f417xx.o(RESET)
    __dso_handle                             0x08000000   Number         0  startup_stm32f417xx.o(RESET)
    __Vectors_End                            0x08000188   Data           0  startup_stm32f417xx.o(RESET)
    __main                                   0x08000189   Thumb Code     8  __main.o(!!!main)
    __scatterload                            0x08000191   Thumb Code     0  __scatter.o(!!!scatter)
    __scatterload_rt2                        0x08000191   Thumb Code    44  __scatter.o(!!!scatter)
    __scatterload_rt2_thumb_only             0x08000191   Thumb Code     0  __scatter.o(!!!scatter)
    __scatterload_null                       0x0800019f   Thumb Code     0  __scatter.o(!!!scatter)
    __scatterload_copy                       0x080001c5   Thumb Code    26  __scatter_copy.o(!!handler_copy)
    __scatterload_zeroinit                   0x080001e1   Thumb Code    28  __scatter_zi.o(!!handler_zi)
    __rt_lib_init                            0x080001fd   Thumb Code     0  libinit.o(.ARM.Collect$$libinit$$00000000)
    __rt_lib_init_fp_1                       0x080001ff   Thumb Code     0  libinit2.o(.ARM.Collect$$libinit$$00000001)
    __rt_lib_init_heap_2                     0x08000203   Thumb Code     0  libinit2.o(.ARM.Collect$$libinit$$00000005)
    __rt_lib_init_preinit_1                  0x08000203   Thumb Code     0  libinit2.o(.ARM.Collect$$libinit$$00000004)
    __rt_lib_init_heap_1                     0x0800020b   Thumb Code     0  libinit2.o(.ARM.Collect$$libinit$$0000000A)
    __rt_lib_init_rand_2                     0x0800020b   Thumb Code     0  libinit2.o(.ARM.Collect$$libinit$$0000000D)
    __rt_lib_init_user_alloc_1               0x0800020b   Thumb Code     0  libinit2.o(.ARM.Collect$$libinit$$0000000C)
    __rt_lib_init_alloca_1                   0x0800020f   Thumb Code     0  libinit2.o(.ARM.Collect$$libinit$$0000002E)
    __rt_lib_init_argv_1                     0x0800020f   Thumb Code     0  libinit2.o(.ARM.Collect$$libinit$$0000002C)
    __rt_lib_init_atexit_1                   0x0800020f   Thumb Code     0  libinit2.o(.ARM.Collect$$libinit$$0000001B)
    __rt_lib_init_clock_1                    0x0800020f   Thumb Code     0  libinit2.o(.ARM.Collect$$libinit$$00000021)
    __rt_lib_init_cpp_2                      0x0800020f   Thumb Code     0  libinit2.o(.ARM.Collect$$libinit$$00000031)
    __rt_lib_init_exceptions_1               0x0800020f   Thumb Code     0  libinit2.o(.ARM.Collect$$libinit$$00000030)
    __rt_lib_init_fp_trap_1                  0x0800020f   Thumb Code     0  libinit2.o(.ARM.Collect$$libinit$$0000001F)
    __rt_lib_init_getenv_1                   0x0800020f   Thumb Code     0  libinit2.o(.ARM.Collect$$libinit$$00000023)
    __rt_lib_init_lc_collate_1               0x0800020f   Thumb Code     0  libinit2.o(.ARM.Collect$$libinit$$00000011)
    __rt_lib_init_lc_ctype_1                 0x0800020f   Thumb Code     0  libinit2.o(.ARM.Collect$$libinit$$00000013)
    __rt_lib_init_lc_monetary_1              0x0800020f   Thumb Code     0  libinit2.o(.ARM.Collect$$libinit$$00000015)
    __rt_lib_init_lc_numeric_1               0x0800020f   Thumb Code     0  libinit2.o(.ARM.Collect$$libinit$$00000017)
    __rt_lib_init_lc_time_1                  0x0800020f   Thumb Code     0  libinit2.o(.ARM.Collect$$libinit$$00000019)
    __rt_lib_init_rand_1                     0x0800020f   Thumb Code     0  libinit2.o(.ARM.Collect$$libinit$$0000000E)
    __rt_lib_init_signal_1                   0x0800020f   Thumb Code     0  libinit2.o(.ARM.Collect$$libinit$$0000001D)
    __rt_lib_init_stdio_1                    0x0800020f   Thumb Code     0  libinit2.o(.ARM.Collect$$libinit$$00000025)
    __rt_lib_init_cpp_1                      0x08000213   Thumb Code     0  libinit2.o(.ARM.Collect$$libinit$$00000032)
    __rt_lib_init_return                     0x08000213   Thumb Code     0  libinit2.o(.ARM.Collect$$libinit$$00000033)
    __rt_lib_shutdown                        0x08000215   Thumb Code     0  libshutdown.o(.ARM.Collect$$libshutdown$$00000000)
    __rt_lib_shutdown_cpp_1                  0x08000217   Thumb Code     0  libshutdown2.o(.ARM.Collect$$libshutdown$$00000001)
    __rt_lib_shutdown_fp_trap_1              0x0800021d   Thumb Code     0  libshutdown2.o(.ARM.Collect$$libshutdown$$00000006)
    __rt_lib_shutdown_heap_1                 0x0800021d   Thumb Code     0  libshutdown2.o(.ARM.Collect$$libshutdown$$0000000E)
    __rt_lib_shutdown_return                 0x0800021d   Thumb Code     0  libshutdown2.o(.ARM.Collect$$libshutdown$$0000000F)
    __rt_lib_shutdown_signal_1               0x0800021d   Thumb Code     0  libshutdown2.o(.ARM.Collect$$libshutdown$$00000009)
    __rt_lib_shutdown_stdio_1                0x0800021d   Thumb Code     0  libshutdown2.o(.ARM.Collect$$libshutdown$$00000003)
    __rt_lib_shutdown_user_alloc_1           0x0800021d   Thumb Code     0  libshutdown2.o(.ARM.Collect$$libshutdown$$0000000B)
    __rt_entry                               0x0800021f   Thumb Code     0  __rtentry.o(.ARM.Collect$$rtentry$$00000000)
    __rt_entry_presh_1                       0x0800021f   Thumb Code     0  __rtentry2.o(.ARM.Collect$$rtentry$$00000002)
    __rt_entry_sh                            0x0800021f   Thumb Code     0  __rtentry4.o(.ARM.Collect$$rtentry$$00000004)
    __rt_entry_li                            0x08000225   Thumb Code     0  __rtentry2.o(.ARM.Collect$$rtentry$$0000000A)
    __rt_entry_postsh_1                      0x08000225   Thumb Code     0  __rtentry2.o(.ARM.Collect$$rtentry$$00000009)
    __rt_entry_main                          0x08000229   Thumb Code     0  __rtentry2.o(.ARM.Collect$$rtentry$$0000000D)
    __rt_entry_postli_1                      0x08000229   Thumb Code     0  __rtentry2.o(.ARM.Collect$$rtentry$$0000000C)
    __rt_exit                                0x08000231   Thumb Code     0  rtexit.o(.ARM.Collect$$rtexit$$00000000)
    __rt_exit_ls                             0x08000233   Thumb Code     0  rtexit2.o(.ARM.Collect$$rtexit$$00000003)
    __rt_exit_prels_1                        0x08000233   Thumb Code     0  rtexit2.o(.ARM.Collect$$rtexit$$00000002)
    __rt_exit_exit                           0x08000237   Thumb Code     0  rtexit2.o(.ARM.Collect$$rtexit$$00000004)
    rand                                     0x0800023d   Thumb Code    48  rand.o(.emb_text)
    _maybe_terminate_alloc                   0x08000271   Thumb Code     0  maybetermalloc1.o(.emb_text)
    main                                     0x08000271   Thumb Code   416  main.o(.text)
    Physic::Ball2DGroup::Draw(f2P, float, unsigned) 0x08000411   Thumb Code    56  main.o(.text)
    Physic::StarDust::ReadPixel(float, float) 0x08000449   Thumb Code    28  main.o(.text)
    Physic::StarDust::ReadAround(float, float) 0x08000465   Thumb Code    28  main.o(.text)
    Physic::StarDust::Draw(float, float, unsigned) 0x08000481   Thumb Code    30  main.o(.text)
    HAL_MspInit                              0x08000539   Thumb Code     2  stm32f4xx_hal.o(.text)
    HAL_InitTick                             0x0800053b   Thumb Code    34  stm32f4xx_hal.o(.text)
    HAL_Init                                 0x0800055d   Thumb Code    40  stm32f4xx_hal.o(.text)
    HAL_MspDeInit                            0x08000585   Thumb Code     2  stm32f4xx_hal.o(.text)
    HAL_DeInit                               0x08000587   Thumb Code    46  stm32f4xx_hal.o(.text)
    HAL_IncTick                              0x080005b5   Thumb Code    10  stm32f4xx_hal.o(.text)
    HAL_GetTick                              0x080005bf   Thumb Code     6  stm32f4xx_hal.o(.text)
    HAL_Delay                                0x080005c5   Thumb Code    22  stm32f4xx_hal.o(.text)
    HAL_SuspendTick                          0x080005db   Thumb Code    14  stm32f4xx_hal.o(.text)
    HAL_ResumeTick                           0x080005e9   Thumb Code    14  stm32f4xx_hal.o(.text)
    HAL_GetHalVersion                        0x080005f7   Thumb Code     4  stm32f4xx_hal.o(.text)
    HAL_GetREVID                             0x080005fb   Thumb Code     8  stm32f4xx_hal.o(.text)
    HAL_GetDEVID                             0x08000603   Thumb Code    10  stm32f4xx_hal.o(.text)
    HAL_DBGMCU_EnableDBGSleepMode            0x0800060d   Thumb Code    12  stm32f4xx_hal.o(.text)
    HAL_DBGMCU_DisableDBGSleepMode           0x08000619   Thumb Code    12  stm32f4xx_hal.o(.text)
    HAL_DBGMCU_EnableDBGStopMode             0x08000625   Thumb Code    12  stm32f4xx_hal.o(.text)
    HAL_DBGMCU_DisableDBGStopMode            0x08000631   Thumb Code    12  stm32f4xx_hal.o(.text)
    HAL_DBGMCU_EnableDBGStandbyMode          0x0800063d   Thumb Code    12  stm32f4xx_hal.o(.text)
    HAL_DBGMCU_DisableDBGStandbyMode         0x08000649   Thumb Code    12  stm32f4xx_hal.o(.text)
    HAL_EnableCompensationCell               0x08000655   Thumb Code    26  stm32f4xx_hal.o(.text)
    HAL_DisableCompensationCell              0x0800066f   Thumb Code    28  stm32f4xx_hal.o(.text)
    HAL_NVIC_SetPriorityGrouping             0x080006a5   Thumb Code    30  stm32f4xx_hal_cortex.o(.text)
    HAL_NVIC_SetPriority                     0x080006c3   Thumb Code    98  stm32f4xx_hal_cortex.o(.text)
    HAL_NVIC_EnableIRQ                       0x08000725   Thumb Code    24  stm32f4xx_hal_cortex.o(.text)
    HAL_NVIC_DisableIRQ                      0x0800073d   Thumb Code    24  stm32f4xx_hal_cortex.o(.text)
    HAL_NVIC_SystemReset                     0x08000755   Thumb Code    26  stm32f4xx_hal_cortex.o(.text)
    HAL_SYSTICK_Config                       0x0800076f   Thumb Code    36  stm32f4xx_hal_cortex.o(.text)
    HAL_NVIC_GetPriorityGrouping             0x08000793   Thumb Code    10  stm32f4xx_hal_cortex.o(.text)
    HAL_NVIC_GetPriority                     0x0800079d   Thumb Code    94  stm32f4xx_hal_cortex.o(.text)
    HAL_NVIC_SetPendingIRQ                   0x080007fb   Thumb Code    24  stm32f4xx_hal_cortex.o(.text)
    HAL_NVIC_GetPendingIRQ                   0x08000813   Thumb Code    34  stm32f4xx_hal_cortex.o(.text)
    HAL_NVIC_ClearPendingIRQ                 0x08000835   Thumb Code    24  stm32f4xx_hal_cortex.o(.text)
    HAL_NVIC_GetActive                       0x0800084d   Thumb Code    34  stm32f4xx_hal_cortex.o(.text)
    HAL_SYSTICK_CLKSourceConfig              0x0800086f   Thumb Code    28  stm32f4xx_hal_cortex.o(.text)
    HAL_SYSTICK_Callback                     0x0800088b   Thumb Code     2  stm32f4xx_hal_cortex.o(.text)
    HAL_SYSTICK_IRQHandler                   0x0800088d   Thumb Code     8  stm32f4xx_hal_cortex.o(.text)
    HAL_DMA_Init                             0x080008a1   Thumb Code   138  stm32f4xx_hal_dma.o(.text)
    HAL_DMA_DeInit                           0x0800092b   Thumb Code  2880  stm32f4xx_hal_dma.o(.text)
    DMA_SetConfig(__DMA_HandleTypeDef*, unsigned, unsigned, unsigned) 0x0800146b   Thumb Code    56  stm32f4xx_hal_dma.o(.text)
    HAL_DMA_Start                            0x080014a3   Thumb Code    62  stm32f4xx_hal_dma.o(.text)
    HAL_DMA_Start_IT                         0x080014e1   Thumb Code   152  stm32f4xx_hal_dma.o(.text)
    HAL_DMA_Abort                            0x08001579   Thumb Code    90  stm32f4xx_hal_dma.o(.text)
    HAL_DMA_PollForTransfer                  0x080015d3   Thumb Code  7652  stm32f4xx_hal_dma.o(.text)
    HAL_DMA_IRQHandler                       0x080033b7   Thumb Code  7040  stm32f4xx_hal_dma.o(.text)
    HAL_DMA_GetState                         0x08004f37   Thumb Code     6  stm32f4xx_hal_dma.o(.text)
    HAL_DMA_GetError                         0x08004f3d   Thumb Code     4  stm32f4xx_hal_dma.o(.text)
    HAL_GPIO_Init                            0x08004f69   Thumb Code   506  stm32f4xx_hal_gpio.o(.text)
    HAL_GPIO_DeInit                          0x08005163   Thumb Code   328  stm32f4xx_hal_gpio.o(.text)
    HAL_GPIO_ReadPin                         0x080052ab   Thumb Code    14  stm32f4xx_hal_gpio.o(.text)
    HAL_GPIO_WritePin                        0x080052b9   Thumb Code    14  stm32f4xx_hal_gpio.o(.text)
    HAL_GPIO_TogglePin                       0x080052c7   Thumb Code     8  stm32f4xx_hal_gpio.o(.text)
    HAL_GPIO_LockPin                         0x080052cf   Thumb Code    42  stm32f4xx_hal_gpio.o(.text)
    HAL_GPIO_EXTI_Callback                   0x080052f9   Thumb Code     2  stm32f4xx_hal_gpio.o(.text)
    HAL_GPIO_EXTI_IRQHandler                 0x080052fb   Thumb Code    18  stm32f4xx_hal_gpio.o(.text)
    HAL_SPI_MspInit                          0x08005321   Thumb Code     2  stm32f4xx_hal_spi.o(.text)
    HAL_SPI_Init                             0x08005323   Thumb Code   134  stm32f4xx_hal_spi.o(.text)
    HAL_SPI_MspDeInit                        0x080053a9   Thumb Code     2  stm32f4xx_hal_spi.o(.text)
    HAL_SPI_DeInit                           0x080053ab   Thumb Code    42  stm32f4xx_hal_spi.o(.text)
    HAL_SPI_Transmit                         0x080054c7   Thumb Code   408  stm32f4xx_hal_spi.o(.text)
    HAL_SPI_TransmitReceive                  0x0800565f   Thumb Code   760  stm32f4xx_hal_spi.o(.text)
    HAL_SPI_Receive                          0x08005957   Thumb Code   522  stm32f4xx_hal_spi.o(.text)
    HAL_SPI_ErrorCallback                    0x08005b61   Thumb Code     2  stm32f4xx_hal_spi.o(.text)
    HAL_SPI_TxCpltCallback                   0x08005b63   Thumb Code     2  stm32f4xx_hal_spi.o(.text)
    HAL_SPI_TxRxCpltCallback                 0x08005b65   Thumb Code     2  stm32f4xx_hal_spi.o(.text)
    HAL_SPI_Transmit_IT                      0x08005c33   Thumb Code   170  stm32f4xx_hal_spi.o(.text)
    HAL_SPI_RxCpltCallback                   0x08005cdd   Thumb Code     2  stm32f4xx_hal_spi.o(.text)
    HAL_SPI_TransmitReceive_IT               0x08005ddd   Thumb Code   186  stm32f4xx_hal_spi.o(.text)
    HAL_SPI_Receive_IT                       0x08005edf   Thumb Code   182  stm32f4xx_hal_spi.o(.text)
    HAL_SPI_TxHalfCpltCallback               0x08006021   Thumb Code     2  stm32f4xx_hal_spi.o(.text)
    HAL_SPI_Transmit_DMA                     0x0800602d   Thumb Code   184  stm32f4xx_hal_spi.o(.text)
    HAL_SPI_RxHalfCpltCallback               0x08006257   Thumb Code     2  stm32f4xx_hal_spi.o(.text)
    HAL_SPI_TxRxHalfCpltCallback             0x08006299   Thumb Code     2  stm32f4xx_hal_spi.o(.text)
    HAL_SPI_TransmitReceive_DMA              0x080062a5   Thumb Code   274  stm32f4xx_hal_spi.o(.text)
    HAL_SPI_Receive_DMA                      0x080063b7   Thumb Code   214  stm32f4xx_hal_spi.o(.text)
    HAL_SPI_DMAPause                         0x0800648d   Thumb Code    48  stm32f4xx_hal_spi.o(.text)
    HAL_SPI_DMAResume                        0x080064bd   Thumb Code    48  stm32f4xx_hal_spi.o(.text)
    HAL_SPI_DMAStop                          0x080064ed   Thumb Code    52  stm32f4xx_hal_spi.o(.text)
    HAL_SPI_IRQHandler                       0x08006521   Thumb Code   202  stm32f4xx_hal_spi.o(.text)
    HAL_SPI_GetState                         0x080065eb   Thumb Code     6  stm32f4xx_hal_spi.o(.text)
    HAL_SPI_GetError                         0x080065f1   Thumb Code     4  stm32f4xx_hal_spi.o(.text)
    HAL_SRAM_MspInit                         0x08006609   Thumb Code     2  stm32f4xx_hal_sram.o(.text)
    HAL_SRAM_Init                            0x0800660b   Thumb Code    88  stm32f4xx_hal_sram.o(.text)
    HAL_SRAM_MspDeInit                       0x08006663   Thumb Code     2  stm32f4xx_hal_sram.o(.text)
    HAL_SRAM_DeInit                          0x08006665   Thumb Code    32  stm32f4xx_hal_sram.o(.text)
    HAL_SRAM_DMA_XferCpltCallback            0x08006685   Thumb Code     2  stm32f4xx_hal_sram.o(.text)
    HAL_SRAM_DMA_XferErrorCallback           0x08006687   Thumb Code     2  stm32f4xx_hal_sram.o(.text)
    HAL_SRAM_Read_8b                         0x08006689   Thumb Code    64  stm32f4xx_hal_sram.o(.text)
    HAL_SRAM_Write_8b                        0x080066c9   Thumb Code    80  stm32f4xx_hal_sram.o(.text)
    HAL_SRAM_Read_16b                        0x08006719   Thumb Code    64  stm32f4xx_hal_sram.o(.text)
    HAL_SRAM_Write_16b                       0x08006759   Thumb Code    80  stm32f4xx_hal_sram.o(.text)
    HAL_SRAM_Read_32b                        0x080067a9   Thumb Code    64  stm32f4xx_hal_sram.o(.text)
    HAL_SRAM_Write_32b                       0x080067e9   Thumb Code    80  stm32f4xx_hal_sram.o(.text)
    HAL_SRAM_Read_DMA                        0x08006839   Thumb Code    66  stm32f4xx_hal_sram.o(.text)
    HAL_SRAM_Write_DMA                       0x0800687b   Thumb Code    76  stm32f4xx_hal_sram.o(.text)
    HAL_SRAM_WriteOperation_Enable           0x080068c7   Thumb Code    42  stm32f4xx_hal_sram.o(.text)
    HAL_SRAM_WriteOperation_Disable          0x080068f1   Thumb Code    50  stm32f4xx_hal_sram.o(.text)
    HAL_SRAM_GetState                        0x08006923   Thumb Code     6  stm32f4xx_hal_sram.o(.text)
    TIM_Base_SetConfig                       0x08006931   Thumb Code   158  stm32f4xx_hal_tim.o(.text)
    HAL_TIM_Base_MspInit                     0x080069cf   Thumb Code     2  stm32f4xx_hal_tim.o(.text)
    HAL_TIM_Base_Init                        0x080069d1   Thumb Code    56  stm32f4xx_hal_tim.o(.text)
    HAL_TIM_Base_MspDeInit                   0x08006a09   Thumb Code     2  stm32f4xx_hal_tim.o(.text)
    HAL_TIM_Base_DeInit                      0x08006a0b   Thumb Code    56  stm32f4xx_hal_tim.o(.text)
    HAL_TIM_Base_Start                       0x08006a43   Thumb Code    26  stm32f4xx_hal_tim.o(.text)
    HAL_TIM_Base_Stop                        0x08006a5d   Thumb Code    44  stm32f4xx_hal_tim.o(.text)
    HAL_TIM_Base_Start_IT                    0x08006a89   Thumb Code    24  stm32f4xx_hal_tim.o(.text)
    HAL_TIM_Base_Stop_IT                     0x08006aa1   Thumb Code    42  stm32f4xx_hal_tim.o(.text)
    HAL_TIM_ErrorCallback                    0x08006acb   Thumb Code     2  stm32f4xx_hal_tim.o(.text)
    TIM_DMAError                             0x08006acd   Thumb Code    16  stm32f4xx_hal_tim.o(.text)
    HAL_TIM_PeriodElapsedCallback            0x08006add   Thumb Code     2  stm32f4xx_hal_tim.o(.text)
    HAL_TIM_Base_Start_DMA                   0x08006aef   Thumb Code    94  stm32f4xx_hal_tim.o(.text)
    HAL_TIM_Base_Stop_DMA                    0x08006b4d   Thumb Code    48  stm32f4xx_hal_tim.o(.text)
    HAL_TIM_OC_MspInit                       0x08006b7d   Thumb Code     2  stm32f4xx_hal_tim.o(.text)
    HAL_TIM_OC_Init                          0x08006b7f   Thumb Code    56  stm32f4xx_hal_tim.o(.text)
    HAL_TIM_OC_MspDeInit                     0x08006bb7   Thumb Code     2  stm32f4xx_hal_tim.o(.text)
    HAL_TIM_OC_DeInit                        0x08006bb9   Thumb Code    56  stm32f4xx_hal_tim.o(.text)
    TIM_CCxChannelCmd                        0x08006bf1   Thumb Code    26  stm32f4xx_hal_tim.o(.text)
    HAL_TIM_OC_Start                         0x08006c0b   Thumb Code    52  stm32f4xx_hal_tim.o(.text)
    HAL_TIM_OC_Stop                          0x08006c3f   Thumb Code    82  stm32f4xx_hal_tim.o(.text)
    HAL_TIM_OC_Start_IT                      0x08006c91   Thumb Code   110  stm32f4xx_hal_tim.o(.text)
    HAL_TIM_OC_Stop_IT                       0x08006cff   Thumb Code   166  stm32f4xx_hal_tim.o(.text)
    HAL_TIM_PWM_PulseFinishedCallback        0x08006da5   Thumb Code     2  stm32f4xx_hal_tim.o(.text)
    TIM_DMADelayPulseCplt                    0x08006da7   Thumb Code    66  stm32f4xx_hal_tim.o(.text)
    HAL_TIM_OC_Start_DMA                     0x08006de9   Thumb Code   256  stm32f4xx_hal_tim.o(.text)
    HAL_TIM_OC_Stop_DMA                      0x08006ee9   Thumb Code   146  stm32f4xx_hal_tim.o(.text)
    HAL_TIM_PWM_MspInit                      0x08006f7b   Thumb Code     2  stm32f4xx_hal_tim.o(.text)
    HAL_TIM_PWM_Init                         0x08006f7d   Thumb Code    56  stm32f4xx_hal_tim.o(.text)
    HAL_TIM_PWM_MspDeInit                    0x08006fb5   Thumb Code     2  stm32f4xx_hal_tim.o(.text)
    HAL_TIM_PWM_DeInit                       0x08006fb7   Thumb Code    56  stm32f4xx_hal_tim.o(.text)
    HAL_TIM_PWM_Start                        0x08006fef   Thumb Code    52  stm32f4xx_hal_tim.o(.text)
    HAL_TIM_PWM_Stop                         0x08007023   Thumb Code    88  stm32f4xx_hal_tim.o(.text)
    HAL_TIM_PWM_Start_IT                     0x0800707b   Thumb Code   110  stm32f4xx_hal_tim.o(.text)
    HAL_TIM_PWM_Stop_IT                      0x080070e9   Thumb Code   140  stm32f4xx_hal_tim.o(.text)
    HAL_TIM_PWM_Start_DMA                    0x08007175   Thumb Code   256  stm32f4xx_hal_tim.o(.text)
    HAL_TIM_PWM_Stop_DMA                     0x08007275   Thumb Code   146  stm32f4xx_hal_tim.o(.text)
    HAL_TIM_IC_MspInit                       0x08007307   Thumb Code     2  stm32f4xx_hal_tim.o(.text)
    HAL_TIM_IC_Init                          0x08007309   Thumb Code    56  stm32f4xx_hal_tim.o(.text)
    HAL_TIM_IC_MspDeInit                     0x08007341   Thumb Code     2  stm32f4xx_hal_tim.o(.text)
    HAL_TIM_IC_DeInit                        0x08007343   Thumb Code    56  stm32f4xx_hal_tim.o(.text)
    HAL_TIM_IC_Start                         0x0800737b   Thumb Code    26  stm32f4xx_hal_tim.o(.text)
    HAL_TIM_IC_Stop                          0x08007395   Thumb Code    44  stm32f4xx_hal_tim.o(.text)
    HAL_TIM_IC_Start_IT                      0x080073c1   Thumb Code    84  stm32f4xx_hal_tim.o(.text)
    HAL_TIM_IC_Stop_IT                       0x08007415   Thumb Code   102  stm32f4xx_hal_tim.o(.text)
    HAL_TIM_IC_CaptureCallback               0x0800747b   Thumb Code     2  stm32f4xx_hal_tim.o(.text)
    TIM_DMACaptureCplt                       0x0800747d   Thumb Code    66  stm32f4xx_hal_tim.o(.text)
    HAL_TIM_IC_Start_DMA                     0x080074bf   Thumb Code   224  stm32f4xx_hal_tim.o(.text)
    HAL_TIM_IC_Stop_DMA                      0x0800759f   Thumb Code   108  stm32f4xx_hal_tim.o(.text)
    HAL_TIM_OnePulse_MspInit                 0x0800760b   Thumb Code     2  stm32f4xx_hal_tim.o(.text)
    HAL_TIM_OnePulse_Init                    0x0800760d   Thumb Code    76  stm32f4xx_hal_tim.o(.text)
    HAL_TIM_OnePulse_MspDeInit               0x08007659   Thumb Code     2  stm32f4xx_hal_tim.o(.text)
    HAL_TIM_OnePulse_DeInit                  0x0800765b   Thumb Code    56  stm32f4xx_hal_tim.o(.text)
    HAL_TIM_OnePulse_Start                   0x08007693   Thumb Code    54  stm32f4xx_hal_tim.o(.text)
    HAL_TIM_OnePulse_Stop                    0x080076c9   Thumb Code    94  stm32f4xx_hal_tim.o(.text)
    HAL_TIM_OnePulse_Start_IT                0x08007727   Thumb Code    74  stm32f4xx_hal_tim.o(.text)
    HAL_TIM_OnePulse_Stop_IT                 0x08007771   Thumb Code   114  stm32f4xx_hal_tim.o(.text)
    HAL_TIM_Encoder_MspInit                  0x080077e3   Thumb Code     2  stm32f4xx_hal_tim.o(.text)
    HAL_TIM_Encoder_Init                     0x080077e5   Thumb Code   186  stm32f4xx_hal_tim.o(.text)
    HAL_TIM_Encoder_MspDeInit                0x0800789f   Thumb Code     2  stm32f4xx_hal_tim.o(.text)
    HAL_TIM_Encoder_DeInit                   0x080078a1   Thumb Code    56  stm32f4xx_hal_tim.o(.text)
    HAL_TIM_Encoder_Start                    0x080078d9   Thumb Code    66  stm32f4xx_hal_tim.o(.text)
    HAL_TIM_Encoder_Stop                     0x0800791b   Thumb Code    84  stm32f4xx_hal_tim.o(.text)
    HAL_TIM_Encoder_Start_IT                 0x0800796f   Thumb Code   106  stm32f4xx_hal_tim.o(.text)
    HAL_TIM_Encoder_Stop_IT                  0x080079d9   Thumb Code   130  stm32f4xx_hal_tim.o(.text)
    HAL_TIM_Encoder_Start_DMA                0x08007a5b   Thumb Code   288  stm32f4xx_hal_tim.o(.text)
    HAL_TIM_Encoder_Stop_DMA                 0x08007b7b   Thumb Code   130  stm32f4xx_hal_tim.o(.text)
    HAL_TIM_TriggerCallback                  0x08007bfd   Thumb Code     2  stm32f4xx_hal_tim.o(.text)
    HAL_TIM_OC_DelayElapsedCallback          0x08007bff   Thumb Code     2  stm32f4xx_hal_tim.o(.text)
    HAL_TIM_IRQHandler                       0x08007c01   Thumb Code   372  stm32f4xx_hal_tim.o(.text)
    TIM_OC2_SetConfig                        0x08007e35   Thumb Code   108  stm32f4xx_hal_tim.o(.text)
    HAL_TIM_OC_ConfigChannel                 0x08007f05   Thumb Code    86  stm32f4xx_hal_tim.o(.text)
    TIM_TI1_SetConfig                        0x08008017   Thumb Code   122  stm32f4xx_hal_tim.o(.text)
    HAL_TIM_IC_ConfigChannel                 0x08008091   Thumb Code   190  stm32f4xx_hal_tim.o(.text)
    HAL_TIM_PWM_ConfigChannel                0x0800814f   Thumb Code   220  stm32f4xx_hal_tim.o(.text)
    HAL_TIM_OnePulse_ConfigChannel           0x0800822b   Thumb Code   246  stm32f4xx_hal_tim.o(.text)
    HAL_TIM_DMABurst_WriteStart              0x08008331   Thumb Code   314  stm32f4xx_hal_tim.o(.text)
    HAL_TIM_DMABurst_WriteStop               0x0800846b   Thumb Code   120  stm32f4xx_hal_tim.o(.text)
    HAL_TIM_DMABurst_ReadStart               0x080084e3   Thumb Code   324  stm32f4xx_hal_tim.o(.text)
    HAL_TIM_DMABurst_ReadStop                0x08008627   Thumb Code   120  stm32f4xx_hal_tim.o(.text)
    HAL_TIM_GenerateEvent                    0x0800869f   Thumb Code    42  stm32f4xx_hal_tim.o(.text)
    HAL_TIM_ConfigOCrefClear                 0x080086df   Thumb Code   222  stm32f4xx_hal_tim.o(.text)
    HAL_TIM_ConfigClockSource                0x08008817   Thumb Code   272  stm32f4xx_hal_tim.o(.text)
    HAL_TIM_ConfigTI1Input                   0x08008927   Thumb Code    16  stm32f4xx_hal_tim.o(.text)
    HAL_TIM_SlaveConfigSynchronization       0x080089b1   Thumb Code    66  stm32f4xx_hal_tim.o(.text)
    HAL_TIM_SlaveConfigSynchronization_IT    0x080089f3   Thumb Code    66  stm32f4xx_hal_tim.o(.text)
    HAL_TIM_ReadCapturedValue                0x08008a35   Thumb Code    68  stm32f4xx_hal_tim.o(.text)
    HAL_TIM_Base_GetState                    0x08008a79   Thumb Code     6  stm32f4xx_hal_tim.o(.text)
    HAL_TIM_OC_GetState                      0x08008a7f   Thumb Code     6  stm32f4xx_hal_tim.o(.text)
    HAL_TIM_PWM_GetState                     0x08008a85   Thumb Code     6  stm32f4xx_hal_tim.o(.text)
    HAL_TIM_IC_GetState                      0x08008a8b   Thumb Code     6  stm32f4xx_hal_tim.o(.text)
    HAL_TIM_OnePulse_GetState                0x08008a91   Thumb Code     6  stm32f4xx_hal_tim.o(.text)
    HAL_TIM_Encoder_GetState                 0x08008a97   Thumb Code     6  stm32f4xx_hal_tim.o(.text)
    HAL_TIMEx_HallSensor_MspInit             0x08008a9d   Thumb Code     2  stm32f4xx_hal_tim_ex.o(.text)
    HAL_TIMEx_HallSensor_Init                0x08008a9f   Thumb Code   180  stm32f4xx_hal_tim_ex.o(.text)
    HAL_TIMEx_HallSensor_MspDeInit           0x08008b53   Thumb Code     2  stm32f4xx_hal_tim_ex.o(.text)
    HAL_TIMEx_HallSensor_DeInit              0x08008b55   Thumb Code    56  stm32f4xx_hal_tim_ex.o(.text)
    HAL_TIMEx_HallSensor_Start               0x08008b8d   Thumb Code    28  stm32f4xx_hal_tim_ex.o(.text)
    HAL_TIMEx_HallSensor_Stop                0x08008ba9   Thumb Code    46  stm32f4xx_hal_tim_ex.o(.text)
    HAL_TIMEx_HallSensor_Start_IT            0x08008bd7   Thumb Code    38  stm32f4xx_hal_tim_ex.o(.text)
    HAL_TIMEx_HallSensor_Stop_IT             0x08008bfd   Thumb Code    56  stm32f4xx_hal_tim_ex.o(.text)
    HAL_TIMEx_HallSensor_Start_DMA           0x08008c35   Thumb Code   106  stm32f4xx_hal_tim_ex.o(.text)
    HAL_TIMEx_HallSensor_Stop_DMA            0x08008c9f   Thumb Code    56  stm32f4xx_hal_tim_ex.o(.text)
    HAL_TIMEx_OCN_Start                      0x08008cf1   Thumb Code    36  stm32f4xx_hal_tim_ex.o(.text)
    HAL_TIMEx_OCN_Stop                       0x08008d15   Thumb Code    68  stm32f4xx_hal_tim_ex.o(.text)
    HAL_TIMEx_OCN_Start_IT                   0x08008d59   Thumb Code   104  stm32f4xx_hal_tim_ex.o(.text)
    HAL_TIMEx_OCN_Stop_IT                    0x08008dc1   Thumb Code   142  stm32f4xx_hal_tim_ex.o(.text)
    HAL_TIMEx_OCN_Start_DMA                  0x08008e4f   Thumb Code   236  stm32f4xx_hal_tim_ex.o(.text)
    HAL_TIMEx_OCN_Stop_DMA                   0x08008f3b   Thumb Code   132  stm32f4xx_hal_tim_ex.o(.text)
    HAL_TIMEx_PWMN_Start                     0x08008fbf   Thumb Code    36  stm32f4xx_hal_tim_ex.o(.text)
    HAL_TIMEx_PWMN_Stop                      0x08008fe3   Thumb Code    68  stm32f4xx_hal_tim_ex.o(.text)
    HAL_TIMEx_PWMN_Start_IT                  0x08009027   Thumb Code   116  stm32f4xx_hal_tim_ex.o(.text)
    HAL_TIMEx_PWMN_Stop_IT                   0x0800909b   Thumb Code   142  stm32f4xx_hal_tim_ex.o(.text)
    HAL_TIMEx_PWMN_Start_DMA                 0x08009129   Thumb Code   236  stm32f4xx_hal_tim_ex.o(.text)
    HAL_TIMEx_PWMN_Stop_DMA                  0x08009215   Thumb Code   132  stm32f4xx_hal_tim_ex.o(.text)
    HAL_TIMEx_OnePulseN_Start                0x08009299   Thumb Code    26  stm32f4xx_hal_tim_ex.o(.text)
    HAL_TIMEx_OnePulseN_Stop                 0x080092b3   Thumb Code    68  stm32f4xx_hal_tim_ex.o(.text)
    HAL_TIMEx_OnePulseN_Start_IT             0x080092f7   Thumb Code    46  stm32f4xx_hal_tim_ex.o(.text)
    HAL_TIMEx_OnePulseN_Stop_IT              0x08009325   Thumb Code    88  stm32f4xx_hal_tim_ex.o(.text)
    HAL_TIMEx_ConfigCommutationEvent         0x0800937d   Thumb Code    98  stm32f4xx_hal_tim_ex.o(.text)
    HAL_TIMEx_ConfigCommutationEvent_IT      0x080093df   Thumb Code   108  stm32f4xx_hal_tim_ex.o(.text)
    HAL_TIMEx_CommutationCallback            0x0800944b   Thumb Code     2  stm32f4xx_hal_tim_ex.o(.text)
    TIMEx_DMACommutationCplt                 0x0800944d   Thumb Code    16  stm32f4xx_hal_tim_ex.o(.text)
    HAL_TIMEx_ConfigCommutationEvent_DMA     0x0800945d   Thumb Code   122  stm32f4xx_hal_tim_ex.o(.text)
    HAL_TIMEx_MasterConfigSynchronization    0x080094d7   Thumb Code   110  stm32f4xx_hal_tim_ex.o(.text)
    HAL_TIMEx_ConfigBreakDeadTime            0x08009545   Thumb Code    92  stm32f4xx_hal_tim_ex.o(.text)
    HAL_TIMEx_RemapConfig                    0x080095a1   Thumb Code    36  stm32f4xx_hal_tim_ex.o(.text)
    HAL_TIMEx_BreakCallback                  0x080095c5   Thumb Code     2  stm32f4xx_hal_tim_ex.o(.text)
    HAL_TIMEx_HallSensor_GetState            0x080095c7   Thumb Code     6  stm32f4xx_hal_tim_ex.o(.text)
    FSMC_NORSRAM_Init                        0x080095cd   Thumb Code    84  stm32f4xx_ll_fsmc.o(.text)
    FSMC_NORSRAM_DeInit                      0x08009621   Thumb Code    52  stm32f4xx_ll_fsmc.o(.text)
    FSMC_NORSRAM_Timing_Init                 0x08009655   Thumb Code    70  stm32f4xx_ll_fsmc.o(.text)
    FSMC_NORSRAM_Extended_Timing_Init        0x0800969b   Thumb Code    84  stm32f4xx_ll_fsmc.o(.text)
    FSMC_NORSRAM_WriteOperation_Enable       0x080096ef   Thumb Code    16  stm32f4xx_ll_fsmc.o(.text)
    FSMC_NORSRAM_WriteOperation_Disable      0x080096ff   Thumb Code    16  stm32f4xx_ll_fsmc.o(.text)
    FSMC_NAND_Init                           0x0800970f   Thumb Code    82  stm32f4xx_ll_fsmc.o(.text)
    FSMC_NAND_CommonSpace_Timing_Init        0x08009761   Thumb Code    48  stm32f4xx_ll_fsmc.o(.text)
    FSMC_NAND_AttributeSpace_Timing_Init     0x08009791   Thumb Code    48  stm32f4xx_ll_fsmc.o(.text)
    FSMC_NAND_DeInit                         0x080097c1   Thumb Code    62  stm32f4xx_ll_fsmc.o(.text)
    FSMC_NAND_ECC_Enable                     0x080097ff   Thumb Code    26  stm32f4xx_ll_fsmc.o(.text)
    FSMC_NAND_ECC_Disable                    0x08009819   Thumb Code    26  stm32f4xx_ll_fsmc.o(.text)
    FSMC_NAND_GetECC                         0x08009833   Thumb Code   110  stm32f4xx_ll_fsmc.o(.text)
    FSMC_PCCARD_Init                         0x080098a1   Thumb Code    38  stm32f4xx_ll_fsmc.o(.text)
    FSMC_PCCARD_CommonSpace_Timing_Init      0x080098c7   Thumb Code    28  stm32f4xx_ll_fsmc.o(.text)
    FSMC_PCCARD_AttributeSpace_Timing_Init   0x080098e3   Thumb Code    28  stm32f4xx_ll_fsmc.o(.text)
    FSMC_PCCARD_IOSpace_Timing_Init          0x080098ff   Thumb Code    28  stm32f4xx_ll_fsmc.o(.text)
    FSMC_PCCARD_DeInit                       0x0800991b   Thumb Code    30  stm32f4xx_ll_fsmc.o(.text)
    HAL_RCC_DeInit                           0x08009941   Thumb Code    74  stm32f4xx_hal_rcc.o(.text)
    HAL_RCC_OscConfig                        0x0800998b   Thumb Code  1086  stm32f4xx_hal_rcc.o(.text)
    HAL_RCC_ClockConfig                      0x08009dc9   Thumb Code   628  stm32f4xx_hal_rcc.o(.text)
    HAL_RCC_MCOConfig                        0x0800a03d   Thumb Code   138  stm32f4xx_hal_rcc.o(.text)
    HAL_RCC_EnableCSS                        0x0800a0c7   Thumb Code     8  stm32f4xx_hal_rcc.o(.text)
    HAL_RCC_DisableCSS                       0x0800a0cf   Thumb Code     8  stm32f4xx_hal_rcc.o(.text)
    HAL_RCC_GetSysClockFreq                  0x0800a0d7   Thumb Code   126  stm32f4xx_hal_rcc.o(.text)
    HAL_RCC_GetHCLKFreq                      0x0800a155   Thumb Code    84  stm32f4xx_hal_rcc.o(.text)
    HAL_RCC_GetPCLK1Freq                     0x0800a1a9   Thumb Code    36  stm32f4xx_hal_rcc.o(.text)
    HAL_RCC_GetPCLK2Freq                     0x0800a1cd   Thumb Code    36  stm32f4xx_hal_rcc.o(.text)
    HAL_RCC_GetOscConfig                     0x0800a1f1   Thumb Code   254  stm32f4xx_hal_rcc.o(.text)
    HAL_RCC_GetClockConfig                   0x0800a2ef   Thumb Code    52  stm32f4xx_hal_rcc.o(.text)
    HAL_RCC_CSSCallback                      0x0800a323   Thumb Code     2  stm32f4xx_hal_rcc.o(.text)
    HAL_RCC_NMI_IRQHandler                   0x0800a325   Thumb Code    24  stm32f4xx_hal_rcc.o(.text)
    Error_Handler()                          0x0800a361   Thumb Code     2  init.o(.text)
    ClockEnable()                            0x0800a363   Thumb Code   274  init.o(.text)
    SystemClock_Config()                     0x0800a475   Thumb Code   140  init.o(.text)
    HsramInit()                              0x0800a501   Thumb Code    96  init.o(.text)
    DacInit()                                0x0800a561   Thumb Code     2  init.o(.text)
    AdcInit()                                0x0800a563   Thumb Code     2  init.o(.text)
    AdcReinit(ADC_HandleTypeDef&, unsigned, unsigned) 0x0800a565   Thumb Code     2  init.o(.text)
    SpiInit()                                0x0800a567   Thumb Code    62  init.o(.text)
    DmaInit()                                0x0800a5a5   Thumb Code   110  init.o(.text)
    TimInit()                                0x0800a613   Thumb Code   144  init.o(.text)
    GpioInit()                               0x0800a6a3   Thumb Code   298  init.o(.text)
    Screen::Screen()                         0x0800a7d1   Thumb Code    52  screen.o(.text)
    Screen::Screen__sub_object()             0x0800a7d1   Thumb Code     0  screen.o(.text)
    Screen::operator ()(b2D, Frame2D<short>&) 0x0800a805   Thumb Code   156  screen.o(.text)
    Screen::Refresh()                        0x0800a8a1   Thumb Code    10  screen.o(.text)
    Screen::MakeTexture(short, short)        0x0800a8ab   Thumb Code    30  screen.o(.text)
    Screen::MakeTexture(b2D)                 0x0800a8c9   Thumb Code    16  screen.o(.text)
    Screen::KillTexture(tTexture*)           0x0800a8d9   Thumb Code     4  screen.o(.text)
    Screen::Pixel(short, short, unsigned short) 0x0800a8dd   Thumb Code    36  screen.o(.text)
    Screen::Pixel(short, short)              0x0800a901   Thumb Code    32  screen.o(.text)
    Screen::PixelsAround(short, short)       0x0800a921   Thumb Code   180  screen.o(.text)
    Screen::GetFrame()                       0x0800a9d5   Thumb Code     6  screen.o(.text)
    ScreenManager::ScreenManager()           0x0800a9db   Thumb Code    16  screen.o(.text)
    ScreenManager::ScreenManager__sub_object() 0x0800a9db   Thumb Code     0  screen.o(.text)
    ScreenManager::operator ()()             0x0800a9eb   Thumb Code     6  screen.o(.text)
    ScreenManager::Create(b2D, Frame2D<short>*) 0x0800a9f1   Thumb Code    42  screen.o(.text)
    ScreenManager::Kill(Screen*)             0x0800aa1b   Thumb Code    14  screen.o(.text)
    ScreenManager::Refresh(unsigned)         0x0800aa29   Thumb Code    18  screen.o(.text)
    __TTY::__TTY()                           0x0800aa41   Thumb Code     2  terminal_interface.o(.text)
    __TTY::__TTY__sub_object()               0x0800aa41   Thumb Code     0  terminal_interface.o(.text)
    __TTY::operator ()(void*, unsigned)      0x0800aa43   Thumb Code    10  terminal_interface.o(.text)
    __TTY::Print(int, char*, unsigned)       0x0800aa4d   Thumb Code    50  terminal_interface.o(.text)
    __TTY::Print(char*, unsigned)            0x0800aa7f   Thumb Code    48  terminal_interface.o(.text)
    __TTY::Print(int, char*)                 0x0800aaaf   Thumb Code    56  terminal_interface.o(.text)
    __TTY::Print(char*)                      0x0800aae7   Thumb Code    56  terminal_interface.o(.text)
    __TTY::Char(int, char)                   0x0800ab1f   Thumb Code    24  terminal_interface.o(.text)
    __TTY::Char(char)                        0x0800ab37   Thumb Code    20  terminal_interface.o(.text)
    __TTY::operator <<(char*)                0x0800ab4b   Thumb Code     6  terminal_interface.o(.text)
    __TTY::operator <<(int)                  0x0800ab51   Thumb Code    40  terminal_interface.o(.text)
    __TTY::operator <<(char)                 0x0800ab79   Thumb Code    18  terminal_interface.o(.text)
    __TTY::operator +(char*)                 0x0800ab8b   Thumb Code     2  terminal_interface.o(.text)
    __TTY::operator +(int)                   0x0800ab8d   Thumb Code    38  terminal_interface.o(.text)
    __TTY::operator +(char)                  0x0800abb3   Thumb Code    14  terminal_interface.o(.text)
    __TTY::Print()                           0x0800abc1   Thumb Code    22  terminal_interface.o(.text)
    __TTY::Clear()                           0x0800abd7   Thumb Code    22  terminal_interface.o(.text)
    DEV_Gpio_Init(GPIO_TypeDef*, int, unsigned, unsigned) 0x0800abed   Thumb Code    34  gpio_ex.o(.text)
    DEV_AltGpio_Init(GPIO_TypeDef*, int, unsigned, unsigned) 0x0800ac0f   Thumb Code    40  gpio_ex.o(.text)
    SpiSoftTypeDef::DummyWait(unsigned)      0x0800ac37   Thumb Code    14  gpio_ex.o(.text)
    SpiSoftTypeDef::Init()                   0x0800ac45   Thumb Code    16  gpio_ex.o(.text)
    SpiSoftTypeDef::Select()                 0x0800ac55   Thumb Code    10  gpio_ex.o(.text)
    SpiSoftTypeDef::DeSelect()               0x0800ac5f   Thumb Code     8  gpio_ex.o(.text)
    SpiSoftTypeDef::DummyClock()             0x0800ac67   Thumb Code    14  gpio_ex.o(.text)
    SpiSoftTypeDef::Send_9bit_Data(bool, unsigned char) 0x0800ac75   Thumb Code    78  gpio_ex.o(.text)
    SpiSoftTypeDef::Read_8bit_Data()         0x0800acc3   Thumb Code     4  gpio_ex.o(.text)
    Test(unsigned short, unsigned short)     0x0800acd1   Thumb Code     4  tftili9486.o(.text)
    LcdDriverDef::LcdDriverDef(GPIO_TypeDef*, SpiSoftTypeDef&, unsigned) 0x0800acd5   Thumb Code    16  tftili9486.o(.text)
    LcdDriverDef::LcdDriverDef__sub_object(GPIO_TypeDef*, SpiSoftTypeDef&, unsigned) 0x0800acd5   Thumb Code     0  tftili9486.o(.text)
    LcdDriverDef::Backlight(unsigned char)   0x0800ace5   Thumb Code     6  tftili9486.o(.text)
    LcdDriverDef::DotClk(unsigned)           0x0800aceb   Thumb Code    20  tftili9486.o(.text)
    LcdDriverDef::HsClk()                    0x0800acff   Thumb Code    30  tftili9486.o(.text)
    LcdDriverDef::VsClk()                    0x0800ad1d   Thumb Code    20  tftili9486.o(.text)
    LcdDriverDef::DotClk()                   0x0800ad31   Thumb Code    12  tftili9486.o(.text)
    LcdDriverDef::PutColor(unsigned short)   0x0800ad3d   Thumb Code     6  tftili9486.o(.text)
    LcdDriverDef::Fill(unsigned short, unsigned short, unsigned short) 0x0800ad43   Thumb Code    58  tftili9486.o(.text)
    LcdDriverDef::Fill(const tImage&, unsigned, unsigned) 0x0800ad7d   Thumb Code   132  tftili9486.o(.text)
    LcdDriverDef::WrData8(unsigned char)     0x0800ae01   Thumb Code    16  tftili9486.o(.text)
    LcdDriverDef::WrCmd8(unsigned char)      0x0800ae11   Thumb Code    16  tftili9486.o(.text)
    LcdDriverDef::Window(unsigned short, unsigned short, unsigned short, unsigned short) 0x0800ae21   Thumb Code   140  tftili9486.o(.text)
    LcdDriverDef::Fill(Frame2D<short>&, b2D) 0x0800aead   Thumb Code   194  tftili9486.o(.text)
    LcdDriverDef::RstHw()                    0x0800af6f   Thumb Code    36  tftili9486.o(.text)
    LcdDriverDef::Init(unsigned)             0x0800af93   Thumb Code   278  tftili9486.o(.text)
    LcdDriverDef::DummyCycle(unsigned)       0x0800b0a9   Thumb Code     6  tftili9486.o(.text)
    LcdDriverDef::Rd8()                      0x0800b0af   Thumb Code    22  tftili9486.o(.text)
    Alloc(unsigned)                          0x0800b0d5   Thumb Code     8  device.o(.text)
    Free(void*)                              0x0800b0dd   Thumb Code     8  device.o(.text)
    LcdDriverDef::ExtInput(b2D, unsigned)    0x0800b0e5   Thumb Code     6  device.o(.text)
    LcdDriverDef::BcklApply(unsigned char)   0x0800b0eb   Thumb Code    12  device.o(.text)
    NMI_Handler                              0x0800b15d   Thumb Code     2  stm32f4xx_it.o(.text)
    HardFault_Handler                        0x0800b15f   Thumb Code     2  stm32f4xx_it.o(.text)
    MemManage_Handler                        0x0800b161   Thumb Code     2  stm32f4xx_it.o(.text)
    BusFault_Handler                         0x0800b163   Thumb Code     2  stm32f4xx_it.o(.text)
    UsageFault_Handler                       0x0800b165   Thumb Code     2  stm32f4xx_it.o(.text)
    SVC_Handler                              0x0800b167   Thumb Code     2  stm32f4xx_it.o(.text)
    DebugMon_Handler                         0x0800b169   Thumb Code     2  stm32f4xx_it.o(.text)
    PendSV_Handler                           0x0800b16b   Thumb Code     2  stm32f4xx_it.o(.text)
    SysTick_Handler                          0x0800b16d   Thumb Code     4  stm32f4xx_it.o(.text)
    EXTI0_IRQHandler                         0x0800b171   Thumb Code     2  stm32f4xx_it.o(.text)
    TIM1_UP_TIM10_IRQHandler                 0x0800b173   Thumb Code     6  stm32f4xx_it.o(.text)
    TIM2_IRQHandler                          0x0800b179   Thumb Code     6  stm32f4xx_it.o(.text)
    Coordinates::Place(b2D)                  0x0800b189   Thumb Code    18  geometry.o(.text)
    Coordinates::Place(short, short)         0x0800b19b   Thumb Code     6  geometry.o(.text)
    Coordinates::Dispose(b2D)                0x0800b1a1   Thumb Code    30  geometry.o(.text)
    Coordinates::Dispose(short, short, short, short) 0x0800b1bf   Thumb Code    16  geometry.o(.text)
    Coordinates::GetRect()                   0x0800b1cf   Thumb Code    38  geometry.o(.text)
    Coordinates::GetxRect()                  0x0800b1f5   Thumb Code    40  geometry.o(.text)
    Coordinates::GetyRect()                  0x0800b21d   Thumb Code    40  geometry.o(.text)
    Coordinates::GetxyRect()                 0x0800b245   Thumb Code    42  geometry.o(.text)
    Coordinates::GetH()                      0x0800b26f   Thumb Code     6  geometry.o(.text)
    Coordinates::GetW()                      0x0800b275   Thumb Code     6  geometry.o(.text)
    Coordinates::AllignLeft(b2D)             0x0800b27b   Thumb Code    12  geometry.o(.text)
    Coordinates::AllignRight(b2D)            0x0800b287   Thumb Code    24  geometry.o(.text)
    Coordinates::AllignTop(b2D)              0x0800b29f   Thumb Code    24  geometry.o(.text)
    Coordinates::AllignBottom(b2D)           0x0800b2b7   Thumb Code    12  geometry.o(.text)
    Coordinates::Trunc(b2D*, b2D)            0x0800b2c3   Thumb Code    72  geometry.o(.text)
    Coordinates::Trunc(b2D*)                 0x0800b30b   Thumb Code   102  geometry.o(.text)
    Coordinates::TruncLine(short, short, short, short) 0x0800b371   Thumb Code   128  geometry.o(.text)
    gTest::TestLineIntersect(float, float, float, float, float, float, float, float) 0x0800b3f1   Thumb Code    72  geometry.o(.text)
    gTest::TestBoxBounds(f2D, f2D)           0x0800b439   Thumb Code   154  geometry.o(.text)
    gTest::TestPointInBox(f2D, float, float) 0x0800b4d3   Thumb Code    98  geometry.o(.text)
    Locker::Locker()                         0x0800b535   Thumb Code     2  locker.o(.text)
    Locker::Locker__sub_object()             0x0800b535   Thumb Code     0  locker.o(.text)
    Locker::Unlock(unsigned)                 0x0800b537   Thumb Code     6  locker.o(.text)
    Locker::Lock(unsigned)                   0x0800b53d   Thumb Code     6  locker.o(.text)
    Locker::Test()                           0x0800b543   Thumb Code     4  locker.o(.text)
    Affine_Body::Affine_Body()               0x0800b547   Thumb Code     2  affine_tf.o(.text)
    Affine_Body::Affine_Body__sub_object()   0x0800b547   Thumb Code     0  affine_tf.o(.text)
    Affine_Body::operator ()()               0x0800b549   Thumb Code     2  affine_tf.o(.text)
    Affine_Body::PointRotateZ(float, float, float, float, float) 0x0800b54b   Thumb Code    40  affine_tf.o(.text)
    Affine_Body::PointRotateZ(f2D, float)    0x0800b573   Thumb Code    28  affine_tf.o(.text)
    STR::itoa(int, char*, unsigned)          0x0800b5b3   Thumb Code    62  dtostr.o(.text)
    Physic::Bounce::Bounce()                 0x0800b5f1   Thumb Code     2  physic.o(.text)
    Physic::Bounce::Bounce__sub_object()     0x0800b5f1   Thumb Code     0  physic.o(.text)
    Physic::Bounce::operator ()(float, float, float, float, float) 0x0800b5f3   Thumb Code    62  physic.o(.text)
    Physic::Bounce::Step()                   0x0800b631   Thumb Code   200  physic.o(.text)
    Physic::Bounce::Step(float)              0x0800b6f9   Thumb Code     6  physic.o(.text)
    Physic::Ball2D::Ball2D()                 0x0800b6ff   Thumb Code     2  physic.o(.text)
    Physic::Ball2D::Ball2D__sub_object()     0x0800b6ff   Thumb Code     0  physic.o(.text)
    Physic::Ball2D::Dir(float)               0x0800b701   Thumb Code    54  physic.o(.text)
    Physic::Ball2D::operator ()(float, float, float) 0x0800b737   Thumb Code    50  physic.o(.text)
    Physic::Ball2D::Test(b2D, float&)        0x0800b769   Thumb Code   184  physic.o(.text)
    Physic::Ball2D::Step(b2D)                0x0800b821   Thumb Code    78  physic.o(.text)
    Physic::Ball2D::Step()                   0x0800b86f   Thumb Code    38  physic.o(.text)
    Physic::Ball2D::Test(float, float, float, float) 0x0800b895   Thumb Code   212  physic.o(.text)
    Physic::Ball2D::Dir(float, float)        0x0800b969   Thumb Code    30  physic.o(.text)
    Physic::Ball2D::Test(Physic::Ball2D&)    0x0800b987   Thumb Code   290  physic.o(.text)
    Physic::Ball2D::SwapP(Physic::Ball2D&)   0x0800baa9   Thumb Code   144  physic.o(.text)
    Physic::Ball2DGroup::Ball2DGroup()       0x0800bb39   Thumb Code    16  physic.o(.text)
    Physic::Ball2DGroup::Ball2DGroup__sub_object() 0x0800bb39   Thumb Code     0  physic.o(.text)
    Physic::Ball2DGroup::operator ()(b2D, float, float) 0x0800bb49   Thumb Code    26  physic.o(.text)
    Physic::Ball2DGroup::Step()              0x0800bb63   Thumb Code   236  physic.o(.text)
    Physic::Ball2DGroup::Add(unsigned)       0x0800bc4f   Thumb Code   106  physic.o(.text)
    Physic::Ball2DGroup::Add(float, float, float) 0x0800bcb9   Thumb Code    86  physic.o(.text)
    Physic::Ball2DGroup::Remove(unsigned)    0x0800bd0f   Thumb Code     2  physic.o(.text)
    Physic::Ball2DGroup::Draw()              0x0800bd11   Thumb Code   102  physic.o(.text)
    Physic::StarDust::StarDust()             0x0800bd77   Thumb Code    10  physic.o(.text)
    Physic::StarDust::StarDust__sub_object() 0x0800bd77   Thumb Code     0  physic.o(.text)
    Physic::StarDust::~StarDust()            0x0800bd81   Thumb Code    20  physic.o(.text)
    Physic::StarDust::~StarDust__sub_object() 0x0800bd81   Thumb Code     0  physic.o(.text)
    Physic::StarDust::operator ()()          0x0800bd95   Thumb Code    32  physic.o(.text)
    Physic::StarDust::SetUp(Physic::DustPart*, unsigned) 0x0800bdb5   Thumb Code   110  physic.o(.text)
    Physic::StarDust::SetUp(Physic::DustPart*, const tImage&, unsigned) 0x0800be23   Thumb Code   388  physic.o(.text)
    Physic::StarDust::Add(float)             0x0800bfa7   Thumb Code   104  physic.o(.text)
    Physic::StarDust::Add(unsigned)          0x0800c00f   Thumb Code     2  physic.o(.text)
    Physic::StarDust::Remove(unsigned)       0x0800c011   Thumb Code     2  physic.o(.text)
    Physic::StarDust::Test(Physic::DustPart&, Physic::DustPart&) 0x0800c013   Thumb Code   152  physic.o(.text)
    Physic::StarDust::Step(b2D)              0x0800c0ab   Thumb Code   210  physic.o(.text)
    Physic::StarDust::Draw()                 0x0800c17d   Thumb Code    92  physic.o(.text)
    Physic::StarDust::TestAround(Physic::DustPart&) 0x0800c1d9   Thumb Code   260  physic.o(.text)
    MemoryAllocator::Separate(MemoryChunk*, unsigned) 0x0800c2e1   Thumb Code    16  memory_alloc.o(.text)
    MemoryAllocator::New(unsigned)           0x0800c2f1   Thumb Code   156  memory_alloc.o(.text)
    MemoryAllocator::operator ()(void*, unsigned) 0x0800c38d   Thumb Code    64  memory_alloc.o(.text)
    MemoryAllocator::Sanitize(List_Iterator<MemoryChunk>&) 0x0800c3cd   Thumb Code   142  memory_alloc.o(.text)
    MemoryAllocator::Delete(void*)           0x0800c45b   Thumb Code   126  memory_alloc.o(.text)
    MemoryAllocator::Check()                 0x0800c4d9   Thumb Code     4  memory_alloc.o(.text)
    MemoryAllocator::PrintTable()            0x0800c4dd   Thumb Code   406  memory_alloc.o(.text)
    Reset_Handler                            0x0800c705   Thumb Code     8  startup_stm32f417xx.o(.text)
    ADC_IRQHandler                           0x0800c71f   Thumb Code     0  startup_stm32f417xx.o(.text)
    CAN1_RX0_IRQHandler                      0x0800c71f   Thumb Code     0  startup_stm32f417xx.o(.text)
    CAN1_RX1_IRQHandler                      0x0800c71f   Thumb Code     0  startup_stm32f417xx.o(.text)
    CAN1_SCE_IRQHandler                      0x0800c71f   Thumb Code     0  startup_stm32f417xx.o(.text)
    CAN1_TX_IRQHandler                       0x0800c71f   Thumb Code     0  startup_stm32f417xx.o(.text)
    CAN2_RX0_IRQHandler                      0x0800c71f   Thumb Code     0  startup_stm32f417xx.o(.text)
    CAN2_RX1_IRQHandler                      0x0800c71f   Thumb Code     0  startup_stm32f417xx.o(.text)
    CAN2_SCE_IRQHandler                      0x0800c71f   Thumb Code     0  startup_stm32f417xx.o(.text)
    CAN2_TX_IRQHandler                       0x0800c71f   Thumb Code     0  startup_stm32f417xx.o(.text)
    CRYP_IRQHandler                          0x0800c71f   Thumb Code     0  startup_stm32f417xx.o(.text)
    DCMI_IRQHandler                          0x0800c71f   Thumb Code     0  startup_stm32f417xx.o(.text)
    DMA1_Stream0_IRQHandler                  0x0800c71f   Thumb Code     0  startup_stm32f417xx.o(.text)
    DMA1_Stream1_IRQHandler                  0x0800c71f   Thumb Code     0  startup_stm32f417xx.o(.text)
    DMA1_Stream2_IRQHandler                  0x0800c71f   Thumb Code     0  startup_stm32f417xx.o(.text)
    DMA1_Stream3_IRQHandler                  0x0800c71f   Thumb Code     0  startup_stm32f417xx.o(.text)
    DMA1_Stream4_IRQHandler                  0x0800c71f   Thumb Code     0  startup_stm32f417xx.o(.text)
    DMA1_Stream5_IRQHandler                  0x0800c71f   Thumb Code     0  startup_stm32f417xx.o(.text)
    DMA1_Stream6_IRQHandler                  0x0800c71f   Thumb Code     0  startup_stm32f417xx.o(.text)
    DMA1_Stream7_IRQHandler                  0x0800c71f   Thumb Code     0  startup_stm32f417xx.o(.text)
    DMA2_Stream0_IRQHandler                  0x0800c71f   Thumb Code     0  startup_stm32f417xx.o(.text)
    DMA2_Stream1_IRQHandler                  0x0800c71f   Thumb Code     0  startup_stm32f417xx.o(.text)
    DMA2_Stream2_IRQHandler                  0x0800c71f   Thumb Code     0  startup_stm32f417xx.o(.text)
    DMA2_Stream3_IRQHandler                  0x0800c71f   Thumb Code     0  startup_stm32f417xx.o(.text)
    DMA2_Stream4_IRQHandler                  0x0800c71f   Thumb Code     0  startup_stm32f417xx.o(.text)
    DMA2_Stream5_IRQHandler                  0x0800c71f   Thumb Code     0  startup_stm32f417xx.o(.text)
    DMA2_Stream6_IRQHandler                  0x0800c71f   Thumb Code     0  startup_stm32f417xx.o(.text)
    DMA2_Stream7_IRQHandler                  0x0800c71f   Thumb Code     0  startup_stm32f417xx.o(.text)
    ETH_IRQHandler                           0x0800c71f   Thumb Code     0  startup_stm32f417xx.o(.text)
    ETH_WKUP_IRQHandler                      0x0800c71f   Thumb Code     0  startup_stm32f417xx.o(.text)
    EXTI15_10_IRQHandler                     0x0800c71f   Thumb Code     0  startup_stm32f417xx.o(.text)
    EXTI1_IRQHandler                         0x0800c71f   Thumb Code     0  startup_stm32f417xx.o(.text)
    EXTI2_IRQHandler                         0x0800c71f   Thumb Code     0  startup_stm32f417xx.o(.text)
    EXTI3_IRQHandler                         0x0800c71f   Thumb Code     0  startup_stm32f417xx.o(.text)
    EXTI4_IRQHandler                         0x0800c71f   Thumb Code     0  startup_stm32f417xx.o(.text)
    EXTI9_5_IRQHandler                       0x0800c71f   Thumb Code     0  startup_stm32f417xx.o(.text)
    FLASH_IRQHandler                         0x0800c71f   Thumb Code     0  startup_stm32f417xx.o(.text)
    FMC_IRQHandler                           0x0800c71f   Thumb Code     0  startup_stm32f417xx.o(.text)
    FPU_IRQHandler                           0x0800c71f   Thumb Code     0  startup_stm32f417xx.o(.text)
    HASH_RNG_IRQHandler                      0x0800c71f   Thumb Code     0  startup_stm32f417xx.o(.text)
    I2C1_ER_IRQHandler                       0x0800c71f   Thumb Code     0  startup_stm32f417xx.o(.text)
    I2C1_EV_IRQHandler                       0x0800c71f   Thumb Code     0  startup_stm32f417xx.o(.text)
    I2C2_ER_IRQHandler                       0x0800c71f   Thumb Code     0  startup_stm32f417xx.o(.text)
    I2C2_EV_IRQHandler                       0x0800c71f   Thumb Code     0  startup_stm32f417xx.o(.text)
    I2C3_ER_IRQHandler                       0x0800c71f   Thumb Code     0  startup_stm32f417xx.o(.text)
    I2C3_EV_IRQHandler                       0x0800c71f   Thumb Code     0  startup_stm32f417xx.o(.text)
    OTG_FS_IRQHandler                        0x0800c71f   Thumb Code     0  startup_stm32f417xx.o(.text)
    OTG_FS_WKUP_IRQHandler                   0x0800c71f   Thumb Code     0  startup_stm32f417xx.o(.text)
    OTG_HS_EP1_IN_IRQHandler                 0x0800c71f   Thumb Code     0  startup_stm32f417xx.o(.text)
    OTG_HS_EP1_OUT_IRQHandler                0x0800c71f   Thumb Code     0  startup_stm32f417xx.o(.text)
    OTG_HS_IRQHandler                        0x0800c71f   Thumb Code     0  startup_stm32f417xx.o(.text)
    OTG_HS_WKUP_IRQHandler                   0x0800c71f   Thumb Code     0  startup_stm32f417xx.o(.text)
    PVD_IRQHandler                           0x0800c71f   Thumb Code     0  startup_stm32f417xx.o(.text)
    RCC_IRQHandler                           0x0800c71f   Thumb Code     0  startup_stm32f417xx.o(.text)
    RTC_Alarm_IRQHandler                     0x0800c71f   Thumb Code     0  startup_stm32f417xx.o(.text)
    RTC_WKUP_IRQHandler                      0x0800c71f   Thumb Code     0  startup_stm32f417xx.o(.text)
    SDIO_IRQHandler                          0x0800c71f   Thumb Code     0  startup_stm32f417xx.o(.text)
    SPI1_IRQHandler                          0x0800c71f   Thumb Code     0  startup_stm32f417xx.o(.text)
    SPI2_IRQHandler                          0x0800c71f   Thumb Code     0  startup_stm32f417xx.o(.text)
    SPI3_IRQHandler                          0x0800c71f   Thumb Code     0  startup_stm32f417xx.o(.text)
    TAMP_STAMP_IRQHandler                    0x0800c71f   Thumb Code     0  startup_stm32f417xx.o(.text)
    TIM1_BRK_TIM9_IRQHandler                 0x0800c71f   Thumb Code     0  startup_stm32f417xx.o(.text)
    TIM1_CC_IRQHandler                       0x0800c71f   Thumb Code     0  startup_stm32f417xx.o(.text)
    TIM1_TRG_COM_TIM11_IRQHandler            0x0800c71f   Thumb Code     0  startup_stm32f417xx.o(.text)
    TIM3_IRQHandler                          0x0800c71f   Thumb Code     0  startup_stm32f417xx.o(.text)
    TIM4_IRQHandler                          0x0800c71f   Thumb Code     0  startup_stm32f417xx.o(.text)
    TIM5_IRQHandler                          0x0800c71f   Thumb Code     0  startup_stm32f417xx.o(.text)
    TIM6_DAC_IRQHandler                      0x0800c71f   Thumb Code     0  startup_stm32f417xx.o(.text)
    TIM7_IRQHandler                          0x0800c71f   Thumb Code     0  startup_stm32f417xx.o(.text)
    TIM8_BRK_TIM12_IRQHandler                0x0800c71f   Thumb Code     0  startup_stm32f417xx.o(.text)
    TIM8_CC_IRQHandler                       0x0800c71f   Thumb Code     0  startup_stm32f417xx.o(.text)
    TIM8_TRG_COM_TIM14_IRQHandler            0x0800c71f   Thumb Code     0  startup_stm32f417xx.o(.text)
    TIM8_UP_TIM13_IRQHandler                 0x0800c71f   Thumb Code     0  startup_stm32f417xx.o(.text)
    UART4_IRQHandler                         0x0800c71f   Thumb Code     0  startup_stm32f417xx.o(.text)
    UART5_IRQHandler                         0x0800c71f   Thumb Code     0  startup_stm32f417xx.o(.text)
    USART1_IRQHandler                        0x0800c71f   Thumb Code     0  startup_stm32f417xx.o(.text)
    USART2_IRQHandler                        0x0800c71f   Thumb Code     0  startup_stm32f417xx.o(.text)
    USART3_IRQHandler                        0x0800c71f   Thumb Code     0  startup_stm32f417xx.o(.text)
    USART6_IRQHandler                        0x0800c71f   Thumb Code     0  startup_stm32f417xx.o(.text)
    WWDG_IRQHandler                          0x0800c71f   Thumb Code     0  startup_stm32f417xx.o(.text)
    __user_initial_stackheap                 0x0800c721   Thumb Code     0  startup_stm32f417xx.o(.text)
    SystemInit                               0x0800c745   Thumb Code    64  system_stm32f4xx.o(.text)
    SystemCoreClockUpdate                    0x0800c785   Thumb Code   124  system_stm32f4xx.o(.text)
    __aeabi_errno_addr                       0x0800c82d   Thumb Code     8  rt_errno_addr_intlibspace.o(.text)
    __errno$intlibspace                      0x0800c82d   Thumb Code     0  rt_errno_addr_intlibspace.o(.text)
    __rt_errno_addr$intlibspace              0x0800c82d   Thumb Code     0  rt_errno_addr_intlibspace.o(.text)
    srand                                    0x0800c835   Thumb Code    42  rand.o(.text)
    _rand_init                               0x0800c85f   Thumb Code     4  rand.o(.text)
    strlen                                   0x0800c871   Thumb Code    62  strlen.o(.text)
    __aeabi_memcpy4                          0x0800c8af   Thumb Code     0  rt_memcpy_w.o(.text)
    __aeabi_memcpy8                          0x0800c8af   Thumb Code     0  rt_memcpy_w.o(.text)
    __rt_memcpy_w                            0x0800c8af   Thumb Code   100  rt_memcpy_w.o(.text)
    _memcpy_lastbytes_aligned                0x0800c8f7   Thumb Code     0  rt_memcpy_w.o(.text)
    __use_two_region_memory                  0x0800c913   Thumb Code     2  heapauxi.o(.text)
    __rt_heap_escrow                         0x0800c915   Thumb Code     2  heapauxi.o(.text)
    __rt_heap_expand                         0x0800c917   Thumb Code     2  heapauxi.o(.text)
    __cpp_initialize__aeabi_                 0x0800c919   Thumb Code    26  init_aeabi.o(.text)
    __aeabi_vec_dtor                         0x0800c93d   Thumb Code    34  aeabi_vec_dtor_noexceptions.o(.text)
    __user_libspace                          0x0800c961   Thumb Code     8  libspace.o(.text)
    __user_perproc_libspace                  0x0800c961   Thumb Code     0  libspace.o(.text)
    __user_perthread_libspace                0x0800c961   Thumb Code     0  libspace.o(.text)
    __rt_ddtor_pointer_addr                  0x0800c969   Thumb Code     8  rt_ddtor_pointer_addr_intlibspace.o(.text)
    malloc                                   0x0800c971   Thumb Code    94  h1_alloc.o(.text)
    __read_errno                             0x0800c9cf   Thumb Code    10  _rserrno.o(.text)
    __set_errno                              0x0800c9d9   Thumb Code    12  _rserrno.o(.text)
    __rt_heap_descriptor                     0x0800c9e5   Thumb Code     8  rt_heap_descriptor_intlibspace.o(.text)
    __use_no_heap                            0x0800c9ed   Thumb Code     2  hguard.o(.text)
    __heap$guard                             0x0800c9ef   Thumb Code     2  hguard.o(.text)
    _terminate_user_alloc                    0x0800c9f1   Thumb Code     2  init_alloc.o(.text)
    _init_user_alloc                         0x0800c9f3   Thumb Code     2  init_alloc.o(.text)
    __Heap_Full                              0x0800c9f5   Thumb Code    34  init_alloc.o(.text)
    __Heap_Broken                            0x0800ca17   Thumb Code     6  init_alloc.o(.text)
    _init_alloc                              0x0800ca1d   Thumb Code    94  init_alloc.o(.text)
    __Heap_Initialize                        0x0800ca7b   Thumb Code    10  h1_init.o(.text)
    __Heap_DescSize                          0x0800ca85   Thumb Code     4  h1_init.o(.text)
    free                                     0x0800ca89   Thumb Code    78  h1_free.o(.text)
    __user_setup_stackheap                   0x0800cad7   Thumb Code    74  sys_stackheap_outer.o(.text)
    __Heap_ProvideMemory                     0x0800cb21   Thumb Code    52  h1_extend.o(.text)
    exit                                     0x0800cb55   Thumb Code    12  exit.o(.text)
    __rt_SIGRTMEM                            0x0800cb61   Thumb Code    14  defsig_rtmem_outer.o(.text)
    _sys_exit                                0x0800cb71   Thumb Code     8  sys_exit.o(.text)
    __I$use$semihosting                      0x0800cb7d   Thumb Code     0  use_no_semi.o(.text)
    __use_no_semihosting_swi                 0x0800cb7d   Thumb Code     2  use_no_semi.o(.text)
    __semihosting_library_function           0x0800cb7f   Thumb Code     0  indicate_semi.o(.text)
    __sig_exit                               0x0800cb7f   Thumb Code    10  defsig_exit.o(.text)
    __rt_SIGRTMEM_inner                      0x0800cb89   Thumb Code    22  defsig_rtmem_inner.o(.text)
    __default_signal_display                 0x0800cbd9   Thumb Code    50  defsig_general.o(.text)
    _ttywrch                                 0x0800cc0b   Thumb Code    14  sys_wrch.o(.text)
    ScreenManager::~ScreenManager()          0x0800cc19   Thumb Code    12  device.o(i._ZN13ScreenManagerD1Ev)
    ScreenManager::~ScreenManager__sub_object() 0x0800cc19   Thumb Code     0  device.o(i._ZN13ScreenManagerD1Ev)
    storage::Map<(int)2, Physic::DustPart, float>::~Map() 0x0800cc25   Thumb Code    20  physic.o(i._ZN7storage3MapILi2EN6Physic8DustPartEfED1Ev)
    storage::Map<(int)2, Physic::DustPart, float>::~Map__sub_object() 0x0800cc25   Thumb Code     0  physic.o(i._ZN7storage3MapILi2EN6Physic8DustPartEfED1Ev)
    __ARM_fpclassify                         0x0800cc3d   Thumb Code    48  fpclassify.o(i.__ARM_fpclassify)
    __ARM_fpclassifyf                        0x0800cc6d   Thumb Code    38  fpclassifyf.o(i.__ARM_fpclassifyf)
    __aeabi_atexit                           0x0800cc93   Thumb Code    50  aeabi_atexit.o(i.__aeabi_atexit)
    __aeabi_vec_ctor_nocookie_nodtor         0x0800ccc5   Thumb Code    36  aeabi_vec_ctor_nocookie_nodtor.o(i.__aeabi_vec_ctor_nocookie_nodtor)
    __cxa_finalize                           0x0800cce9   Thumb Code    66  cxa_finalize.o(i.__cxa_finalize)
    __hardfp_atan                            0x0800cd31   Thumb Code   622  atan.o(i.__hardfp_atan)
    __hardfp_cosf                            0x0800d009   Thumb Code   280  cosf.o(i.__hardfp_cosf)
    __hardfp_sinf                            0x0800d159   Thumb Code   344  sinf.o(i.__hardfp_sinf)
    __kernel_poly                            0x0800d2e9   Thumb Code   248  poly.o(i.__kernel_poly)
    __mathlib_dbl_infnan                     0x0800d3e1   Thumb Code    20  dunder.o(i.__mathlib_dbl_infnan)
    __mathlib_dbl_underflow                  0x0800d3f9   Thumb Code    24  dunder.o(i.__mathlib_dbl_underflow)
    __mathlib_flt_infnan                     0x0800d419   Thumb Code     6  funder.o(i.__mathlib_flt_infnan)
    __mathlib_flt_invalid                    0x0800d421   Thumb Code    10  funder.o(i.__mathlib_flt_invalid)
    __mathlib_flt_underflow                  0x0800d431   Thumb Code    10  funder.o(i.__mathlib_flt_underflow)
    __mathlib_rredf2                         0x0800d441   Thumb Code   316  rredf.o(i.__mathlib_rredf2)
    fabs                                     0x0800d595   Thumb Code    24  fabs.o(i.fabs)
    Fill_Class<Screen>::Fill(unsigned short) 0x0800d5ad   Thumb Code    94  main.o(t._ZN10Fill_ClassI6ScreenE4FillEt)
    Fill_Class<Screen>::Fill_Class()         0x0800d60b   Thumb Code     2  screen.o(t._ZN10Fill_ClassI6ScreenEC1Ev)
    Fill_Class<Screen>::Fill_Class__sub_object() 0x0800d60b   Thumb Code     0  screen.o(t._ZN10Fill_ClassI6ScreenEC1Ev)
    Line_Class<Screen>::Init()               0x0800d60d   Thumb Code    20  screen.o(t._ZN10Line_ClassI6ScreenE4InitEv)
    Line_Class<Screen>::Line_Class()         0x0800d621   Thumb Code     2  screen.o(t._ZN10Line_ClassI6ScreenEC1Ev)
    Line_Class<Screen>::Line_Class__sub_object() 0x0800d621   Thumb Code     0  screen.o(t._ZN10Line_ClassI6ScreenEC1Ev)
    List_Order<Screen, unsigned char>::List_Order() 0x0800d623   Thumb Code     4  screen.o(t._ZN10List_OrderI6ScreenhEC1Ev)
    List_Order<Screen, unsigned char>::List_Order__sub_object() 0x0800d623   Thumb Code     0  screen.o(t._ZN10List_OrderI6ScreenhEC1Ev)
    List_Order<Screen, unsigned char>::~List_Order() 0x0800d627   Thumb Code     2  device.o(t._ZN10List_OrderI6ScreenhED1Ev)
    List_Order<Screen, unsigned char>::~List_Order__sub_object() 0x0800d627   Thumb Code     0  device.o(t._ZN10List_OrderI6ScreenhED1Ev)
    List_Order<Screen, unsigned char>::operator +(Screen*) 0x0800d629   Thumb Code     4  screen.o(t._ZN10List_OrderI6ScreenhEplEPS0_)
    List_Order<Screen, unsigned char>::operator +(Screen&) 0x0800d62d   Thumb Code    32  screen.o(t._ZN10List_OrderI6ScreenhEplERS0_)
    List_Order<Physic::DustPart, float>::Begin() 0x0800d64d   Thumb Code     4  physic.o(t._ZN10List_OrderIN6Physic8DustPartEfE5BeginEv)
    List_Order<Physic::DustPart, float>::List_Order() 0x0800d651   Thumb Code     4  physic.o(t._ZN10List_OrderIN6Physic8DustPartEfEC1Ev)
    List_Order<Physic::DustPart, float>::List_Order__sub_object() 0x0800d651   Thumb Code     0  physic.o(t._ZN10List_OrderIN6Physic8DustPartEfEC1Ev)
    List_Order<Physic::DustPart, float>::~List_Order() 0x0800d655   Thumb Code     2  physic.o(t._ZN10List_OrderIN6Physic8DustPartEfED1Ev)
    List_Order<Physic::DustPart, float>::~List_Order__sub_object() 0x0800d655   Thumb Code     0  physic.o(t._ZN10List_OrderIN6Physic8DustPartEfED1Ev)
    List_Order<Physic::DustPart, float>::operator +(Physic::DustPart&) 0x0800d657   Thumb Code    32  physic.o(t._ZN10List_OrderIN6Physic8DustPartEfEplERS1_)
    Screen_Obj<Screen>::operator ()(Screen&) 0x0800d677   Thumb Code    36  screen.o(t._ZN10Screen_ObjI6ScreenEclERS0_)
    Print_Class<Screen>::Init()              0x0800d69b   Thumb Code    58  screen.o(t._ZN11Print_ClassI6ScreenE4InitEv)
    Print_Class<Screen>::UseFont(const tFont*) 0x0800d6d5   Thumb Code    12  main.o(t._ZN11Print_ClassI6ScreenE7UseFontEPK5tFont)
    Print_Class<Screen>::Print_Class()       0x0800d6e1   Thumb Code     2  screen.o(t._ZN11Print_ClassI6ScreenEC1Ev)
    Print_Class<Screen>::Print_Class__sub_object() 0x0800d6e1   Thumb Code     0  screen.o(t._ZN11Print_ClassI6ScreenEC1Ev)
    Bitmap_Class<Screen>::NewBitmapOpen(tTexture&) 0x0800d6e3   Thumb Code   102  main.o(t._ZN12Bitmap_ClassI6ScreenE13NewBitmapOpenER8tTexture)
    Bitmap_Class<Screen>::NewBitmapClose()   0x0800d749   Thumb Code    38  main.o(t._ZN12Bitmap_ClassI6ScreenE14NewBitmapCloseEv)
    int Bitmap_Class<Screen>::Fill<tTexture>(T1*, unsigned short) 0x0800d76f   Thumb Code    46  main.o(t._ZN12Bitmap_ClassI6ScreenE4FillI8tTextureEEiPT_t)
    int Bitmap_Class<Screen>::Tile<tTexture>(b2D, T1*, unsigned short) 0x0800d79d   Thumb Code   348  main.o(t._ZN12Bitmap_ClassI6ScreenE4TileI8tTextureEEi3b2DPT_t)
    Bitmap_Class<Screen>::SetScale(float, float) 0x0800d8f9   Thumb Code    26  main.o(t._ZN12Bitmap_ClassI6ScreenE8SetScaleEff)
    Bitmap_Class<Screen>::Bitmap_Class()     0x0800d913   Thumb Code     2  screen.o(t._ZN12Bitmap_ClassI6ScreenEC1Ev)
    Bitmap_Class<Screen>::Bitmap_Class__sub_object() 0x0800d913   Thumb Code     0  screen.o(t._ZN12Bitmap_ClassI6ScreenEC1Ev)
    Circle_Class<Screen>::Sqr(int)           0x0800d915   Thumb Code     6  main.o(t._ZN12Circle_ClassI6ScreenE3SqrEi)
    Circle_Class<Screen>::Draw(b2D, float, unsigned short) 0x0800d91b   Thumb Code   304  main.o(t._ZN12Circle_ClassI6ScreenE4DrawE3b2Dft)
    Circle_Class<Screen>::Draw(short, short, float, unsigned short) 0x0800da4b   Thumb Code    24  main.o(t._ZN12Circle_ClassI6ScreenE4DrawEssft)
    Circle_Class<Screen>::Pixel(unsigned, unsigned, unsigned short) 0x0800da63   Thumb Code    22  main.o(t._ZN12Circle_ClassI6ScreenE5PixelEjjt)
    Circle_Class<Screen>::Point(int, int, int, int, unsigned short) 0x0800da79   Thumb Code    70  main.o(t._ZN12Circle_ClassI6ScreenE5PointEiiiit)
    Circle_Class<Screen>::Circle_Class()     0x0800dabf   Thumb Code     2  screen.o(t._ZN12Circle_ClassI6ScreenEC1Ev)
    Circle_Class<Screen>::Circle_Class__sub_object() 0x0800dabf   Thumb Code     0  screen.o(t._ZN12Circle_ClassI6ScreenEC1Ev)
    List_Iterator<MemoryChunk>::Get(unsigned) 0x0800dac1   Thumb Code    24  memory_alloc.o(t._ZN13List_IteratorI11MemoryChunkE3GetEj)
    List_Iterator<MemoryChunk>::Remove(MemoryChunk*) 0x0800dad9   Thumb Code    32  memory_alloc.o(t._ZN13List_IteratorI11MemoryChunkE6RemoveEPS0_)
    List_Iterator<MemoryChunk>::Contain()    0x0800daf9   Thumb Code     4  memory_alloc.o(t._ZN13List_IteratorI11MemoryChunkE7ContainEv)
    List_Iterator<MemoryChunk>::GetLast()    0x0800dafd   Thumb Code     4  memory_alloc.o(t._ZN13List_IteratorI11MemoryChunkE7GetLastEv)
    List_Iterator<MemoryChunk>::GetFirst()   0x0800db01   Thumb Code     4  memory_alloc.o(t._ZN13List_IteratorI11MemoryChunkE8GetFirstEv)
    List_Iterator<MemoryChunk>::List_Iterator() 0x0800db05   Thumb Code     2  device.o(t._ZN13List_IteratorI11MemoryChunkEC1Ev)
    List_Iterator<MemoryChunk>::List_Iterator__sub_object() 0x0800db05   Thumb Code     0  device.o(t._ZN13List_IteratorI11MemoryChunkEC1Ev)
    List_Iterator<MemoryChunk>::operator -(MemoryChunk*) 0x0800db07   Thumb Code     4  memory_alloc.o(t._ZN13List_IteratorI11MemoryChunkEmiEPS0_)
    List_Iterator<MemoryChunk>::operator -(MemoryChunk&) 0x0800db0b   Thumb Code    78  memory_alloc.o(t._ZN13List_IteratorI11MemoryChunkEmiERS0_)
    List_Iterator<MemoryChunk>::operator +(MemoryChunk*) 0x0800db59   Thumb Code     4  memory_alloc.o(t._ZN13List_IteratorI11MemoryChunkEplEPS0_)
    List_Iterator<MemoryChunk>::operator +(MemoryChunk&) 0x0800db5d   Thumb Code    96  memory_alloc.o(t._ZN13List_IteratorI11MemoryChunkEplERS0_)
    List_Iterator<Node<Screen, unsigned char>>::List_Iterator() 0x0800dbbd   Thumb Code     2  screen.o(t._ZN13List_IteratorI4NodeI6ScreenhEEC1Ev)
    List_Iterator<Node<Screen, unsigned char>>::List_Iterator__sub_object() 0x0800dbbd   Thumb Code     0  screen.o(t._ZN13List_IteratorI4NodeI6ScreenhEEC1Ev)
    List_Iterator<Node<Screen, unsigned char>>::operator +(Node<Screen, unsigned char>*) 0x0800dbbf   Thumb Code     4  screen.o(t._ZN13List_IteratorI4NodeI6ScreenhEEplEPS2_)
    List_Iterator<Node<Screen, unsigned char>>::operator +(Node<Screen, unsigned char>&) 0x0800dbc3   Thumb Code    96  screen.o(t._ZN13List_IteratorI4NodeI6ScreenhEEplERS2_)
    List_Iterator<Node<Physic::DustPart, float>>::GetFirst() 0x0800dc23   Thumb Code     4  physic.o(t._ZN13List_IteratorI4NodeIN6Physic8DustPartEfEE8GetFirstEv)
    List_Iterator<Node<Physic::DustPart, float>>::List_Iterator() 0x0800dc27   Thumb Code     2  physic.o(t._ZN13List_IteratorI4NodeIN6Physic8DustPartEfEEC1Ev)
    List_Iterator<Node<Physic::DustPart, float>>::List_Iterator__sub_object() 0x0800dc27   Thumb Code     0  physic.o(t._ZN13List_IteratorI4NodeIN6Physic8DustPartEfEEC1Ev)
    List_Iterator<Node<Physic::DustPart, float>>::operator +(Node<Physic::DustPart, float>*) 0x0800dc29   Thumb Code     4  physic.o(t._ZN13List_IteratorI4NodeIN6Physic8DustPartEfEEplEPS3_)
    List_Iterator<Node<Physic::DustPart, float>>::operator +(Node<Physic::DustPart, float>&) 0x0800dc2d   Thumb Code   104  physic.o(t._ZN13List_IteratorI4NodeIN6Physic8DustPartEfEEplERS3_)
    List_Iterator<Frame2D<short>>::operator +(Frame2D<short>*) 0x0800dc95   Thumb Code     4  main.o(t._ZN13List_IteratorI7Frame2DIsEEplEPS1_)
    List_Iterator<Frame2D<short>>::operator +(Frame2D<short>&) 0x0800dc99   Thumb Code    96  main.o(t._ZN13List_IteratorI7Frame2DIsEEplERS1_)
    List_Iterator<Physic::Ball2D>::Get(unsigned) 0x0800dcf9   Thumb Code    24  physic.o(t._ZN13List_IteratorIN6Physic6Ball2DEE3GetEj)
    List_Iterator<Physic::Ball2D>& List_Iterator<Physic::Ball2D>::Array<lArray<Physic::Ball2D>>(T1*, unsigned) 0x0800dd11   Thumb Code     4  physic.o(t._ZN13List_IteratorIN6Physic6Ball2DEE5ArrayI6lArrayIS1_EEERS2_PT_j)
    List_Iterator<Physic::Ball2D>& List_Iterator<Physic::Ball2D>::Array<lArray<Physic::Ball2D>>(T1&, unsigned) 0x0800dd15   Thumb Code    34  physic.o(t._ZN13List_IteratorIN6Physic6Ball2DEE5ArrayI6lArrayIS1_EEERS2_RT_j)
    List_Iterator<Physic::Ball2D>::Contain() 0x0800dd37   Thumb Code     4  physic.o(t._ZN13List_IteratorIN6Physic6Ball2DEE7ContainEv)
    List_Iterator<Physic::Ball2D>::GetNext(Physic::Ball2D*) 0x0800dd3b   Thumb Code    14  physic.o(t._ZN13List_IteratorIN6Physic6Ball2DEE7GetNextEPS1_)
    List_Iterator<Physic::Ball2D>::GetFirst() 0x0800dd49   Thumb Code     4  physic.o(t._ZN13List_IteratorIN6Physic6Ball2DEE8GetFirstEv)
    List_Iterator<Physic::Ball2D>::List_Iterator() 0x0800dd4d   Thumb Code     2  physic.o(t._ZN13List_IteratorIN6Physic6Ball2DEEC1Ev)
    List_Iterator<Physic::Ball2D>::List_Iterator__sub_object() 0x0800dd4d   Thumb Code     0  physic.o(t._ZN13List_IteratorIN6Physic6Ball2DEEC1Ev)
    List_Iterator<Physic::Ball2D>::operator -(Physic::Ball2D*) 0x0800dd4f   Thumb Code     4  physic.o(t._ZN13List_IteratorIN6Physic6Ball2DEEmiEPS1_)
    List_Iterator<Physic::Ball2D>::operator -(Physic::Ball2D&) 0x0800dd53   Thumb Code    78  physic.o(t._ZN13List_IteratorIN6Physic6Ball2DEEmiERS1_)
    List_Iterator<Physic::Ball2D>::operator +(Physic::Ball2D*) 0x0800dda1   Thumb Code     4  physic.o(t._ZN13List_IteratorIN6Physic6Ball2DEEplEPS1_)
    List_Iterator<Physic::Ball2D>::operator +(Physic::Ball2D&) 0x0800dda5   Thumb Code   104  physic.o(t._ZN13List_IteratorIN6Physic6Ball2DEEplERS1_)
    Frame2DManager<short>::Create(b2D)       0x0800de0d   Thumb Code    50  main.o(t._ZN14Frame2DManagerIsE6CreateE3b2D)
    Frame2DManager<short>::Frame2DManager()  0x0800de3f   Thumb Code     2  device.o(t._ZN14Frame2DManagerIsEC1Ev)
    Frame2DManager<short>::Frame2DManager__sub_object() 0x0800de3f   Thumb Code     0  device.o(t._ZN14Frame2DManagerIsEC1Ev)
    Frame2DManager<short>::operator ()()     0x0800de41   Thumb Code     2  main.o(t._ZN14Frame2DManagerIsEclEv)
    Rectangle_Class<Screen>::Init()          0x0800de43   Thumb Code     6  screen.o(t._ZN15Rectangle_ClassI6ScreenE4InitEv)
    Rectangle_Class<Screen>::Rectangle_Class() 0x0800de49   Thumb Code     2  screen.o(t._ZN15Rectangle_ClassI6ScreenEC1Ev)
    Rectangle_Class<Screen>::Rectangle_Class__sub_object() 0x0800de49   Thumb Code     0  screen.o(t._ZN15Rectangle_ClassI6ScreenEC1Ev)
    lArray<Physic::Ball2D>::Add(Physic::Ball2D*, unsigned) 0x0800de4b   Thumb Code    14  physic.o(t._ZN6lArrayIN6Physic6Ball2DEE3AddEPS1_j)
    lArray<Physic::Ball2D>::~lArray()        0x0800de59   Thumb Code    24  physic.o(t._ZN6lArrayIN6Physic6Ball2DEED1Ev)
    lArray<Physic::Ball2D>::~lArray__sub_object() 0x0800de59   Thumb Code     0  physic.o(t._ZN6lArrayIN6Physic6Ball2DEED1Ev)
    lArray<Physic::Ball2D>::operator ()(unsigned) 0x0800de71   Thumb Code    28  physic.o(t._ZN6lArrayIN6Physic6Ball2DEEclEj)
    lArray<Physic::Ball2D>::operator [](unsigned) 0x0800de8d   Thumb Code     8  physic.o(t._ZN6lArrayIN6Physic6Ball2DEEixEj)
    Frame2D<short>::GetH()                   0x0800de95   Thumb Code    14  screen.o(t._ZN7Frame2DIsE4GetHEv)
    Frame2D<short>::GetBuff()                0x0800dea3   Thumb Code     4  screen.o(t._ZN7Frame2DIsE7GetBuffEv)
    Frame2D<short>::GetRect()                0x0800dea7   Thumb Code    38  tftili9486.o(t._ZN7Frame2DIsE7GetRectEv)
    Frame2D<short>::operator ()(b2D)         0x0800decd   Thumb Code    40  main.o(t._ZN7Frame2DIsEclE3b2D)
    Frame2D<short>::operator ()(b2D, unsigned short*) 0x0800def5   Thumb Code    36  main.o(t._ZN7Frame2DIsEclE3b2DPt)
    storage::Map<(int)2, Physic::DustPart, float>::Begin() 0x0800df19   Thumb Code    42  physic.o(t._ZN7storage3MapILi2EN6Physic8DustPartEfE5BeginEv)
    storage::Map<(int)2, Physic::DustPart, float>::Map() 0x0800df45   Thumb Code    10  physic.o(t._ZN7storage3MapILi2EN6Physic8DustPartEfEC1Ev)
    storage::Map<(int)2, Physic::DustPart, float>::Map__sub_object() 0x0800df45   Thumb Code     0  physic.o(t._ZN7storage3MapILi2EN6Physic8DustPartEfEC1Ev)
    storage::Map<(int)2, Physic::DustPart, float>::operator +(Physic::DustPart*) 0x0800df55   Thumb Code     4  physic.o(t._ZN7storage3MapILi2EN6Physic8DustPartEfEplEPS2_)
    storage::Map<(int)2, Physic::DustPart, float>::operator +(Physic::DustPart&) 0x0800df59   Thumb Code    32  physic.o(t._ZN7storage3MapILi2EN6Physic8DustPartEfEplERS2_)
    Allocator<Screen>::New()                 0x0800df79   Thumb Code     6  screen.o(t._ZN9AllocatorI6ScreenE3NewEv)
    T1* Allocator<Screen>::New<tTexture>(unsigned) 0x0800df7f   Thumb Code     8  screen.o(t._ZN9AllocatorI6ScreenE3NewI8tTextureEEPT_j)
    int Allocator<Screen>::Delete<tTexture>(T1*) 0x0800df87   Thumb Code     6  screen.o(t._ZN9AllocatorI6ScreenE6DeleteI8tTextureEEiPT_)
    Allocator<Frame2D<short>>::New(unsigned) 0x0800df8d   Thumb Code     8  main.o(t._ZN9AllocatorI7Frame2DIsEE3NewEj)
    Allocator<Physic::Ball2D>::New()         0x0800df95   Thumb Code     6  physic.o(t._ZN9AllocatorIN6Physic6Ball2DEE3NewEv)
    T1* Allocator<Physic::Ball2D>::New<lArray<Physic::Ball2D>>() 0x0800df9b   Thumb Code     6  physic.o(t._ZN9AllocatorIN6Physic6Ball2DEE3NewI6lArrayIS1_EEEPT_v)
    int Allocator<Physic::Ball2D>::Delete<lArray<Physic::Ball2D>>(T1*) 0x0800dfa1   Thumb Code     6  physic.o(t._ZN9AllocatorIN6Physic6Ball2DEE6DeleteI6lArrayIS1_EEEiPT_)
    int Allocator<Physic::Ball2D>::Delete<Physic::Ball2D*>(T1*) 0x0800dfa7   Thumb Code     6  physic.o(t._ZN9AllocatorIN6Physic6Ball2DEE6DeleteIPS1_EEiPT_)
    Allocator<Physic::Ball2D>::NewlArray(unsigned) 0x0800dfad   Thumb Code     6  physic.o(t._ZN9AllocatorIN6Physic6Ball2DEE9NewlArrayEj)
    Allocator<Physic::DustPart>::New()       0x0800dfb3   Thumb Code     6  physic.o(t._ZN9AllocatorIN6Physic8DustPartEE3NewEv)
    T1* Allocator<void>::New<Node<Screen, unsigned char>>() 0x0800dfb9   Thumb Code     6  screen.o(t._ZN9AllocatorIvE3NewI4NodeI6ScreenhEEEPT_v)
    T1* Allocator<void>::New<Node<Physic::DustPart, float>>() 0x0800dfbf   Thumb Code     6  physic.o(t._ZN9AllocatorIvE3NewI4NodeIN6Physic8DustPartEfEEEPT_v)
    __aeabi_dneg                             0x0800dfc5   Thumb Code     0  basic.o(x$fpl$basic)
    _dneg                                    0x0800dfc5   Thumb Code     6  basic.o(x$fpl$basic)
    __aeabi_fneg                             0x0800dfcb   Thumb Code     0  basic.o(x$fpl$basic)
    _fneg                                    0x0800dfcb   Thumb Code     6  basic.o(x$fpl$basic)
    _dabs                                    0x0800dfd1   Thumb Code     6  basic.o(x$fpl$basic)
    _fabs                                    0x0800dfd7   Thumb Code     6  basic.o(x$fpl$basic)
    __aeabi_d2f                              0x0800dfdd   Thumb Code     0  d2f.o(x$fpl$d2f)
    _d2f                                     0x0800dfdd   Thumb Code    98  d2f.o(x$fpl$d2f)
    __aeabi_dadd                             0x0800e041   Thumb Code     0  daddsub_clz.o(x$fpl$dadd)
    _dadd                                    0x0800e041   Thumb Code   332  daddsub_clz.o(x$fpl$dadd)
    __aeabi_ddiv                             0x0800e191   Thumb Code     0  ddiv.o(x$fpl$ddiv)
    _ddiv                                    0x0800e191   Thumb Code   552  ddiv.o(x$fpl$ddiv)
    __aeabi_dmul                             0x0800e441   Thumb Code     0  dmul.o(x$fpl$dmul)
    _dmul                                    0x0800e441   Thumb Code   332  dmul.o(x$fpl$dmul)
    __fpl_dnaninf                            0x0800e595   Thumb Code   156  dnaninf.o(x$fpl$dnaninf)
    __fpl_dretinf                            0x0800e631   Thumb Code    12  dretinf.o(x$fpl$dretinf)
    __aeabi_drsub                            0x0800e63d   Thumb Code     0  daddsub_clz.o(x$fpl$drsb)
    _drsb                                    0x0800e63d   Thumb Code    22  daddsub_clz.o(x$fpl$drsb)
    __aeabi_dsub                             0x0800e655   Thumb Code     0  daddsub_clz.o(x$fpl$dsub)
    _dsub                                    0x0800e655   Thumb Code   464  daddsub_clz.o(x$fpl$dsub)
    __aeabi_f2d                              0x0800e829   Thumb Code     0  f2d.o(x$fpl$f2d)
    _f2d                                     0x0800e829   Thumb Code    86  f2d.o(x$fpl$f2d)
    __fpl_fnaninf                            0x0800e87f   Thumb Code   140  fnaninf.o(x$fpl$fnaninf)
    _fp_init                                 0x0800e90b   Thumb Code    10  fpinit.o(x$fpl$fpinit)
    __fplib_config_fpu_vfp                   0x0800e913   Thumb Code     0  fpinit.o(x$fpl$fpinit)
    __fplib_config_pureend_doubles           0x0800e913   Thumb Code     0  fpinit.o(x$fpl$fpinit)
    __fpl_fretinf                            0x0800e915   Thumb Code    10  fretinf.o(x$fpl$fretinf)
    __I$use$fp                               0x0800e91e   Number         0  usenofp.o(x$fpl$usenofp)
    vtable for LcdDriverDef                  0x0801cdf8   Data          16  device.o(.constdata__ZTV12LcdDriverDef)
    vtable for Physic::Ball2DGroup           0x0801ce08   Data          12  main.o(.constdata__ZTVN6Physic11Ball2DGroupE)
    Region$$Table$$Base                      0x0801ce14   Number         0  anon$$obj.o(Region$$Table)
    Region$$Table$$Limit                     0x0801ce34   Number         0  anon$$obj.o(Region$$Table)
    SHT$$INIT_ARRAY$$Base                    0x0801ce34   Number         0  main.o(.init_array)
    SHT$$INIT_ARRAY$$Limit                   0x0801ce3c   Number         0  init_aeabi.o(.init_array)
    frame                                    0x20000000   Data           4  main.o(.data)
    screen                                   0x20000004   Data           4  main.o(.data)
    LcdSpi                                   0x2000000c   Data           1  device.o(.data)
    SystemCoreClock                          0x20000010   Data           4  system_stm32f4xx.o(.data)
    bounce_0                                 0x20000024   Data          44  main.o(.bss)
    bounce_1                                 0x20000050   Data          44  main.o(.bss)
    bounce_2                                 0x2000007c   Data          44  main.o(.bss)
    bounce_3                                 0x200000a8   Data          44  main.o(.bss)
    bounce_4                                 0x200000d4   Data          44  main.o(.bss)
    bounce_5                                 0x20000100   Data          44  main.o(.bss)
    ball_0                                   0x2000012c   Data          56  main.o(.bss)
    BallGr                                   0x20000164   Data          32  main.o(.bss)
    dust                                     0x20000184   Data         108  main.o(.bss)
    parts                                    0x200001f0   Data       41000  main.o(.bss)
    hsram                                    0x2000a218   Data          68  init.o(.bss)
    SRAM_Timing                              0x2000a25c   Data          28  init.o(.bss)
    DmaHandle                                0x2000a278   Data          80  init.o(.bss)
    DmaHandleGraphic                         0x2000a2c8   Data          80  init.o(.bss)
    SpiHandle                                0x2000a318   Data          88  init.o(.bss)
    TimHandle                                0x2000a370   Data          60  init.o(.bss)
    Tim2_Handle                              0x2000a3ac   Data          60  init.o(.bss)
    Heap                                     0x2000a3fc   Data          52  device.o(.bss)
    TFT                                      0x2000a430   Data          16  device.o(.bss)
    FrameManager                             0x2000a440   Data          12  device.o(.bss)
    ScreenMang                               0x2000a44c   Data          20  device.o(.bss)
    _random_number_data                      0x2000a460   Data         228  rand.o(.bss)
    __libspace_start                         0x2000a544   Data          96  libspace.o(.bss)
    __temporary_stack_top$libspace           0x2000a5a4   Data           0  libspace.o(.bss)



==============================================================================

Memory Map of the image

  Image Entry point : 0x08000189

  Load Region LR_IROM1 (Base: 0x08000000, Size: 0x0001ce60, Max: 0x00080000, ABSOLUTE)

    Execution Region ER_IROM1 (Base: 0x08000000, Size: 0x0001ce3c, Max: 0x00080000, ABSOLUTE)

    Base Addr    Size         Type   Attr      Idx    E Section Name        Object

    0x08000000   0x00000188   Data   RO         2130    RESET               startup_stm32f417xx.o
    0x08000188   0x00000008   Code   RO         2187  * !!!main             c_w.l(__main.o)
    0x08000190   0x00000034   Code   RO         2743    !!!scatter          c_w.l(__scatter.o)
    0x080001c4   0x0000001a   Code   RO         2745    !!handler_copy      c_w.l(__scatter_copy.o)
    0x080001de   0x00000002   PAD
    0x080001e0   0x0000001c   Code   RO         2747    !!handler_zi        c_w.l(__scatter_zi.o)
    0x080001fc   0x00000002   Code   RO         2672    .ARM.Collect$$libinit$$00000000  c_w.l(libinit.o)
    0x080001fe   0x00000004   Code   RO         2427    .ARM.Collect$$libinit$$00000001  c_w.l(libinit2.o)
    0x08000202   0x00000000   Code   RO         2430    .ARM.Collect$$libinit$$00000004  c_w.l(libinit2.o)
    0x08000202   0x00000008   Code   RO         2431    .ARM.Collect$$libinit$$00000005  c_w.l(libinit2.o)
    0x0800020a   0x00000000   Code   RO         2433    .ARM.Collect$$libinit$$0000000A  c_w.l(libinit2.o)
    0x0800020a   0x00000000   Code   RO         2435    .ARM.Collect$$libinit$$0000000C  c_w.l(libinit2.o)
    0x0800020a   0x00000004   Code   RO         2436    .ARM.Collect$$libinit$$0000000D  c_w.l(libinit2.o)
    0x0800020e   0x00000000   Code   RO         2437    .ARM.Collect$$libinit$$0000000E  c_w.l(libinit2.o)
    0x0800020e   0x00000000   Code   RO         2440    .ARM.Collect$$libinit$$00000011  c_w.l(libinit2.o)
    0x0800020e   0x00000000   Code   RO         2442    .ARM.Collect$$libinit$$00000013  c_w.l(libinit2.o)
    0x0800020e   0x00000000   Code   RO         2444    .ARM.Collect$$libinit$$00000015  c_w.l(libinit2.o)
    0x0800020e   0x00000000   Code   RO         2446    .ARM.Collect$$libinit$$00000017  c_w.l(libinit2.o)
    0x0800020e   0x00000000   Code   RO         2448    .ARM.Collect$$libinit$$00000019  c_w.l(libinit2.o)
    0x0800020e   0x00000000   Code   RO         2450    .ARM.Collect$$libinit$$0000001B  c_w.l(libinit2.o)
    0x0800020e   0x00000000   Code   RO         2452    .ARM.Collect$$libinit$$0000001D  c_w.l(libinit2.o)
    0x0800020e   0x00000000   Code   RO         2454    .ARM.Collect$$libinit$$0000001F  c_w.l(libinit2.o)
    0x0800020e   0x00000000   Code   RO         2456    .ARM.Collect$$libinit$$00000021  c_w.l(libinit2.o)
    0x0800020e   0x00000000   Code   RO         2458    .ARM.Collect$$libinit$$00000023  c_w.l(libinit2.o)
    0x0800020e   0x00000000   Code   RO         2460    .ARM.Collect$$libinit$$00000025  c_w.l(libinit2.o)
    0x0800020e   0x00000000   Code   RO         2464    .ARM.Collect$$libinit$$0000002C  c_w.l(libinit2.o)
    0x0800020e   0x00000000   Code   RO         2466    .ARM.Collect$$libinit$$0000002E  c_w.l(libinit2.o)
    0x0800020e   0x00000000   Code   RO         2468    .ARM.Collect$$libinit$$00000030  c_w.l(libinit2.o)
    0x0800020e   0x00000004   Code   RO         2469    .ARM.Collect$$libinit$$00000031  c_w.l(libinit2.o)
    0x08000212   0x00000000   Code   RO         2470    .ARM.Collect$$libinit$$00000032  c_w.l(libinit2.o)
    0x08000212   0x00000002   Code   RO         2471    .ARM.Collect$$libinit$$00000033  c_w.l(libinit2.o)
    0x08000214   0x00000002   Code   RO         2726    .ARM.Collect$$libshutdown$$00000000  c_w.l(libshutdown.o)
    0x08000216   0x00000006   Code   RO         2472    .ARM.Collect$$libshutdown$$00000001  c_w.l(libshutdown2.o)
    0x0800021c   0x00000000   Code   RO         2474    .ARM.Collect$$libshutdown$$00000003  c_w.l(libshutdown2.o)
    0x0800021c   0x00000000   Code   RO         2477    .ARM.Collect$$libshutdown$$00000006  c_w.l(libshutdown2.o)
    0x0800021c   0x00000000   Code   RO         2480    .ARM.Collect$$libshutdown$$00000009  c_w.l(libshutdown2.o)
    0x0800021c   0x00000000   Code   RO         2482    .ARM.Collect$$libshutdown$$0000000B  c_w.l(libshutdown2.o)
    0x0800021c   0x00000000   Code   RO         2485    .ARM.Collect$$libshutdown$$0000000E  c_w.l(libshutdown2.o)
    0x0800021c   0x00000002   Code   RO         2486    .ARM.Collect$$libshutdown$$0000000F  c_w.l(libshutdown2.o)
    0x0800021e   0x00000000   Code   RO         2363    .ARM.Collect$$rtentry$$00000000  c_w.l(__rtentry.o)
    0x0800021e   0x00000000   Code   RO         2569    .ARM.Collect$$rtentry$$00000002  c_w.l(__rtentry2.o)
    0x0800021e   0x00000006   Code   RO         2581    .ARM.Collect$$rtentry$$00000004  c_w.l(__rtentry4.o)
    0x08000224   0x00000000   Code   RO         2571    .ARM.Collect$$rtentry$$00000009  c_w.l(__rtentry2.o)
    0x08000224   0x00000004   Code   RO         2572    .ARM.Collect$$rtentry$$0000000A  c_w.l(__rtentry2.o)
    0x08000228   0x00000000   Code   RO         2574    .ARM.Collect$$rtentry$$0000000C  c_w.l(__rtentry2.o)
    0x08000228   0x00000008   Code   RO         2575    .ARM.Collect$$rtentry$$0000000D  c_w.l(__rtentry2.o)
    0x08000230   0x00000002   Code   RO         2687    .ARM.Collect$$rtexit$$00000000  c_w.l(rtexit.o)
    0x08000232   0x00000000   Code   RO         2704    .ARM.Collect$$rtexit$$00000002  c_w.l(rtexit2.o)
    0x08000232   0x00000004   Code   RO         2705    .ARM.Collect$$rtexit$$00000003  c_w.l(rtexit2.o)
    0x08000236   0x00000006   Code   RO         2706    .ARM.Collect$$rtexit$$00000004  c_w.l(rtexit2.o)
    0x0800023c   0x00000034   Code   RO         2173    .emb_text           c_w.l(rand.o)
    0x08000270   0x00000000   Code   RO         2646    .emb_text           c_w.l(maybetermalloc1.o)
    0x08000270   0x000002c8   Code   RO            4    .text               main.o
    0x08000538   0x0000016c   Code   RO          610    .text               stm32f4xx_hal.o
    0x080006a4   0x000001fc   Code   RO          699    .text               stm32f4xx_hal_cortex.o
    0x080008a0   0x000046c8   Code   RO          806    .text               stm32f4xx_hal_dma.o
    0x08004f68   0x000003b8   Code   RO          928    .text               stm32f4xx_hal_gpio.o
    0x08005320   0x000012e8   Code   RO          953    .text               stm32f4xx_hal_spi.o
    0x08006608   0x00000328   Code   RO          978    .text               stm32f4xx_hal_sram.o
    0x08006930   0x0000216c   Code   RO         1003    .text               stm32f4xx_hal_tim.o
    0x08008a9c   0x00000b30   Code   RO         1028    .text               stm32f4xx_hal_tim_ex.o
    0x080095cc   0x00000374   Code   RO         1071    .text               stm32f4xx_ll_fsmc.o
    0x08009940   0x00000a20   Code   RO         1096    .text               stm32f4xx_hal_rcc.o
    0x0800a360   0x00000470   Code   RO         1148    .text               init.o
    0x0800a7d0   0x00000270   Code   RO         1182    .text               screen.o
    0x0800aa40   0x000001ac   Code   RO         1395    .text               terminal_interface.o
    0x0800abec   0x000000e4   Code   RO         1426    .text               gpio_ex.o
    0x0800acd0   0x00000404   Code   RO         1456    .text               tftili9486.o
    0x0800b0d4   0x00000088   Code   RO         1574    .text               device.o
    0x0800b15c   0x0000002c   Code   RO         1669    .text               stm32f4xx_it.o
    0x0800b188   0x000003ac   Code   RO         1695    .text               geometry.o
    0x0800b534   0x00000012   Code   RO         1713    .text               locker.o
    0x0800b546   0x00000048   Code   RO         1731    .text               affine_tf.o
    0x0800b58e   0x00000062   Code   RO         1749    .text               dtostr.o
    0x0800b5f0   0x00000cf0   Code   RO         1767    .text               physic.o
    0x0800c2e0   0x00000424   Code   RO         2042    .text               memory_alloc.o
    0x0800c704   0x00000040   Code   RO         2131    .text               startup_stm32f417xx.o
    0x0800c744   0x000000e8   Code   RO         2138    .text               system_stm32f4xx.o
    0x0800c82c   0x00000008   Code   RO         2171    .text               c_w.l(rt_errno_addr_intlibspace.o)
    0x0800c834   0x0000003c   Code   RO         2174    .text               c_w.l(rand.o)
    0x0800c870   0x0000003e   Code   RO         2181    .text               c_w.l(strlen.o)
    0x0800c8ae   0x00000064   Code   RO         2183    .text               c_w.l(rt_memcpy_w.o)
    0x0800c912   0x00000006   Code   RO         2185    .text               c_w.l(heapauxi.o)
    0x0800c918   0x00000024   Code   RO         2192    .text               c_w.l(init_aeabi.o)
    0x0800c93c   0x00000022   Code   RO         2307    .text               cpprt_w.l(aeabi_vec_dtor_noexceptions.o)
    0x0800c95e   0x00000002   PAD
    0x0800c960   0x00000008   Code   RO         2360    .text               c_w.l(libspace.o)
    0x0800c968   0x00000008   Code   RO         2367    .text               c_w.l(rt_ddtor_pointer_addr_intlibspace.o)
    0x0800c970   0x0000005e   Code   RO         2371    .text               c_w.l(h1_alloc.o)
    0x0800c9ce   0x00000016   Code   RO         2425    .text               c_w.l(_rserrno.o)
    0x0800c9e4   0x00000008   Code   RO         2586    .text               c_w.l(rt_heap_descriptor_intlibspace.o)
    0x0800c9ec   0x00000004   Code   RO         2588    .text               c_w.l(hguard.o)
    0x0800c9f0   0x0000008a   Code   RO         2590    .text               c_w.l(init_alloc.o)
    0x0800ca7a   0x0000000e   Code   RO         2596    .text               c_w.l(h1_init.o)
    0x0800ca88   0x0000004e   Code   RO         2598    .text               c_w.l(h1_free.o)
    0x0800cad6   0x0000004a   Code   RO         2637    .text               c_w.l(sys_stackheap_outer.o)
    0x0800cb20   0x00000034   Code   RO         2648    .text               c_w.l(h1_extend.o)
    0x0800cb54   0x0000000c   Code   RO         2652    .text               c_w.l(exit.o)
    0x0800cb60   0x0000000e   Code   RO         2656    .text               c_w.l(defsig_rtmem_outer.o)
    0x0800cb6e   0x00000002   PAD
    0x0800cb70   0x0000000c   Code   RO         2682    .text               c_w.l(sys_exit.o)
    0x0800cb7c   0x00000002   Code   RO         2684    .text               c_w.l(use_no_semi.o)
    0x0800cb7e   0x00000000   Code   RO         2686    .text               c_w.l(indicate_semi.o)
    0x0800cb7e   0x0000000a   Code   RO         2695    .text               c_w.l(defsig_exit.o)
    0x0800cb88   0x00000050   Code   RO         2701    .text               c_w.l(defsig_rtmem_inner.o)
    0x0800cbd8   0x00000032   Code   RO         2716    .text               c_w.l(defsig_general.o)
    0x0800cc0a   0x0000000e   Code   RO         2720    .text               c_w.l(sys_wrch.o)
    0x0800cc18   0x0000000c   Code   RO         1618    i._ZN13ScreenManagerD1Ev  device.o
    0x0800cc24   0x00000018   Code   RO         1982    i._ZN7storage3MapILi2EN6Physic8DustPartEfED1Ev  physic.o
    0x0800cc3c   0x00000030   Code   RO         2543    i.__ARM_fpclassify  m_wm.l(fpclassify.o)
    0x0800cc6c   0x00000026   Code   RO         2545    i.__ARM_fpclassifyf  m_wm.l(fpclassifyf.o)
    0x0800cc92   0x00000032   Code   RO         2301    i.__aeabi_atexit    cpprt_w.l(aeabi_atexit.o)
    0x0800ccc4   0x00000024   Code   RO         2304    i.__aeabi_vec_ctor_nocookie_nodtor  cpprt_w.l(aeabi_vec_ctor_nocookie_nodtor.o)
    0x0800cce8   0x00000042   Code   RO         2492    i.__cxa_finalize    cpprt_w.l(cxa_finalize.o)
    0x0800cd2a   0x00000006   PAD
    0x0800cd30   0x000002d8   Code   RO         2322    i.__hardfp_atan     m_wm.l(atan.o)
    0x0800d008   0x00000150   Code   RO         2336    i.__hardfp_cosf     m_wm.l(cosf.o)
    0x0800d158   0x00000190   Code   RO         2348    i.__hardfp_sinf     m_wm.l(sinf.o)
    0x0800d2e8   0x000000f8   Code   RO         2561    i.__kernel_poly     m_wm.l(poly.o)
    0x0800d3e0   0x00000014   Code   RO         2524    i.__mathlib_dbl_infnan  m_wm.l(dunder.o)
    0x0800d3f4   0x00000004   PAD
    0x0800d3f8   0x00000020   Code   RO         2529    i.__mathlib_dbl_underflow  m_wm.l(dunder.o)
    0x0800d418   0x00000006   Code   RO         2548    i.__mathlib_flt_infnan  m_wm.l(funder.o)
    0x0800d41e   0x00000002   PAD
    0x0800d420   0x00000010   Code   RO         2550    i.__mathlib_flt_invalid  m_wm.l(funder.o)
    0x0800d430   0x00000010   Code   RO         2553    i.__mathlib_flt_underflow  m_wm.l(funder.o)
    0x0800d440   0x00000154   Code   RO         2563    i.__mathlib_rredf2  m_wm.l(rredf.o)
    0x0800d594   0x00000018   Code   RO         2539    i.fabs              m_wm.l(fabs.o)
    0x0800d5ac   0x0000005e   Code   RO          262    t._ZN10Fill_ClassI6ScreenE4FillEt  main.o
    0x0800d60a   0x00000002   Code   RO         1233    t._ZN10Fill_ClassI6ScreenEC1Ev  screen.o
    0x0800d60c   0x00000014   Code   RO         1257    t._ZN10Line_ClassI6ScreenE4InitEv  screen.o
    0x0800d620   0x00000002   Code   RO         1251    t._ZN10Line_ClassI6ScreenEC1Ev  screen.o
    0x0800d622   0x00000004   Code   RO         1317    t._ZN10List_OrderI6ScreenhEC1Ev  screen.o
    0x0800d626   0x00000002   Code   RO         1606    t._ZN10List_OrderI6ScreenhED1Ev  device.o
    0x0800d628   0x00000004   Code   RO         1311    t._ZN10List_OrderI6ScreenhEplEPS0_  screen.o
    0x0800d62c   0x00000020   Code   RO         1305    t._ZN10List_OrderI6ScreenhEplERS0_  screen.o
    0x0800d64c   0x00000004   Code   RO         1922    t._ZN10List_OrderIN6Physic8DustPartEfE5BeginEv  physic.o
    0x0800d650   0x00000004   Code   RO         1928    t._ZN10List_OrderIN6Physic8DustPartEfEC1Ev  physic.o
    0x0800d654   0x00000002   Code   RO         1934    t._ZN10List_OrderIN6Physic8DustPartEfED1Ev  physic.o
    0x0800d656   0x00000020   Code   RO         1916    t._ZN10List_OrderIN6Physic8DustPartEfEplERS1_  physic.o
    0x0800d676   0x00000024   Code   RO         1227    t._ZN10Screen_ObjI6ScreenEclERS0_  screen.o
    0x0800d69a   0x0000003a   Code   RO         1281    t._ZN11Print_ClassI6ScreenE4InitEv  screen.o
    0x0800d6d4   0x0000000c   Code   RO          268    t._ZN11Print_ClassI6ScreenE7UseFontEPK5tFont  main.o
    0x0800d6e0   0x00000002   Code   RO         1275    t._ZN11Print_ClassI6ScreenEC1Ev  screen.o
    0x0800d6e2   0x00000066   Code   RO          250    t._ZN12Bitmap_ClassI6ScreenE13NewBitmapOpenER8tTexture  main.o
    0x0800d748   0x00000026   Code   RO          238    t._ZN12Bitmap_ClassI6ScreenE14NewBitmapCloseEv  main.o
    0x0800d76e   0x0000002e   Code   RO          256    t._ZN12Bitmap_ClassI6ScreenE4FillI8tTextureEEiPT_t  main.o
    0x0800d79c   0x0000015c   Code   RO          232    t._ZN12Bitmap_ClassI6ScreenE4TileI8tTextureEEi3b2DPT_t  main.o
    0x0800d8f8   0x0000001a   Code   RO          226    t._ZN12Bitmap_ClassI6ScreenE8SetScaleEff  main.o
    0x0800d912   0x00000002   Code   RO         1239    t._ZN12Bitmap_ClassI6ScreenEC1Ev  screen.o
    0x0800d914   0x00000006   Code   RO          316    t._ZN12Circle_ClassI6ScreenE3SqrEi  main.o
    0x0800d91a   0x00000130   Code   RO          328    t._ZN12Circle_ClassI6ScreenE4DrawE3b2Dft  main.o
    0x0800da4a   0x00000018   Code   RO          334    t._ZN12Circle_ClassI6ScreenE4DrawEssft  main.o
    0x0800da62   0x00000016   Code   RO          322    t._ZN12Circle_ClassI6ScreenE5PixelEjjt  main.o
    0x0800da78   0x00000046   Code   RO          310    t._ZN12Circle_ClassI6ScreenE5PointEiiiit  main.o
    0x0800dabe   0x00000002   Code   RO         1245    t._ZN12Circle_ClassI6ScreenEC1Ev  screen.o
    0x0800dac0   0x00000018   Code   RO         2075    t._ZN13List_IteratorI11MemoryChunkE3GetEj  memory_alloc.o
    0x0800dad8   0x00000020   Code   RO         2099    t._ZN13List_IteratorI11MemoryChunkE6RemoveEPS0_  memory_alloc.o
    0x0800daf8   0x00000004   Code   RO         2093    t._ZN13List_IteratorI11MemoryChunkE7ContainEv  memory_alloc.o
    0x0800dafc   0x00000004   Code   RO         2081    t._ZN13List_IteratorI11MemoryChunkE7GetLastEv  memory_alloc.o
    0x0800db00   0x00000004   Code   RO         2087    t._ZN13List_IteratorI11MemoryChunkE8GetFirstEv  memory_alloc.o
    0x0800db04   0x00000002   Code   RO         1600    t._ZN13List_IteratorI11MemoryChunkEC1Ev  device.o
    0x0800db06   0x00000004   Code   RO         2069    t._ZN13List_IteratorI11MemoryChunkEmiEPS0_  memory_alloc.o
    0x0800db0a   0x0000004e   Code   RO         2057    t._ZN13List_IteratorI11MemoryChunkEmiERS0_  memory_alloc.o
    0x0800db58   0x00000004   Code   RO         2063    t._ZN13List_IteratorI11MemoryChunkEplEPS0_  memory_alloc.o
    0x0800db5c   0x00000060   Code   RO         2051    t._ZN13List_IteratorI11MemoryChunkEplERS0_  memory_alloc.o
    0x0800dbbc   0x00000002   Code   RO         1287    t._ZN13List_IteratorI4NodeI6ScreenhEEC1Ev  screen.o
    0x0800dbbe   0x00000004   Code   RO         1299    t._ZN13List_IteratorI4NodeI6ScreenhEEplEPS2_  screen.o
    0x0800dbc2   0x00000060   Code   RO         1293    t._ZN13List_IteratorI4NodeI6ScreenhEEplERS2_  screen.o
    0x0800dc22   0x00000004   Code   RO         1910    t._ZN13List_IteratorI4NodeIN6Physic8DustPartEfEE8GetFirstEv  physic.o
    0x0800dc26   0x00000002   Code   RO         1892    t._ZN13List_IteratorI4NodeIN6Physic8DustPartEfEEC1Ev  physic.o
    0x0800dc28   0x00000004   Code   RO         1904    t._ZN13List_IteratorI4NodeIN6Physic8DustPartEfEEplEPS3_  physic.o
    0x0800dc2c   0x00000068   Code   RO         1898    t._ZN13List_IteratorI4NodeIN6Physic8DustPartEfEEplERS3_  physic.o
    0x0800dc94   0x00000004   Code   RO          286    t._ZN13List_IteratorI7Frame2DIsEEplEPS1_  main.o
    0x0800dc98   0x00000060   Code   RO          280    t._ZN13List_IteratorI7Frame2DIsEEplERS1_  main.o
    0x0800dcf8   0x00000018   Code   RO         1844    t._ZN13List_IteratorIN6Physic6Ball2DEE3GetEj  physic.o
    0x0800dd10   0x00000004   Code   RO         1880    t._ZN13List_IteratorIN6Physic6Ball2DEE5ArrayI6lArrayIS1_EEERS2_PT_j  physic.o
    0x0800dd14   0x00000022   Code   RO         1874    t._ZN13List_IteratorIN6Physic6Ball2DEE5ArrayI6lArrayIS1_EEERS2_RT_j  physic.o
    0x0800dd36   0x00000004   Code   RO         1862    t._ZN13List_IteratorIN6Physic6Ball2DEE7ContainEv  physic.o
    0x0800dd3a   0x0000000e   Code   RO         1856    t._ZN13List_IteratorIN6Physic6Ball2DEE7GetNextEPS1_  physic.o
    0x0800dd48   0x00000004   Code   RO         1850    t._ZN13List_IteratorIN6Physic6Ball2DEE8GetFirstEv  physic.o
    0x0800dd4c   0x00000002   Code   RO         1814    t._ZN13List_IteratorIN6Physic6Ball2DEEC1Ev  physic.o
    0x0800dd4e   0x00000004   Code   RO         1838    t._ZN13List_IteratorIN6Physic6Ball2DEEmiEPS1_  physic.o
    0x0800dd52   0x0000004e   Code   RO         1826    t._ZN13List_IteratorIN6Physic6Ball2DEEmiERS1_  physic.o
    0x0800dda0   0x00000004   Code   RO         1832    t._ZN13List_IteratorIN6Physic6Ball2DEEplEPS1_  physic.o
    0x0800dda4   0x00000068   Code   RO         1820    t._ZN13List_IteratorIN6Physic6Ball2DEEplERS1_  physic.o
    0x0800de0c   0x00000032   Code   RO          298    t._ZN14Frame2DManagerIsE6CreateE3b2D  main.o
    0x0800de3e   0x00000002   Code   RO         1612    t._ZN14Frame2DManagerIsEC1Ev  device.o
    0x0800de40   0x00000002   Code   RO          304    t._ZN14Frame2DManagerIsEclEv  main.o
    0x0800de42   0x00000006   Code   RO         1269    t._ZN15Rectangle_ClassI6ScreenE4InitEv  screen.o
    0x0800de48   0x00000002   Code   RO         1263    t._ZN15Rectangle_ClassI6ScreenEC1Ev  screen.o
    0x0800de4a   0x0000000e   Code   RO         1946    t._ZN6lArrayIN6Physic6Ball2DEE3AddEPS1_j  physic.o
    0x0800de58   0x00000018   Code   RO         1952    t._ZN6lArrayIN6Physic6Ball2DEED1Ev  physic.o
    0x0800de70   0x0000001c   Code   RO         1940    t._ZN6lArrayIN6Physic6Ball2DEEclEj  physic.o
    0x0800de8c   0x00000008   Code   RO         1868    t._ZN6lArrayIN6Physic6Ball2DEEixEj  physic.o
    0x0800de94   0x0000000e   Code   RO         1197    t._ZN7Frame2DIsE4GetHEv  screen.o
    0x0800dea2   0x00000004   Code   RO         1203    t._ZN7Frame2DIsE7GetBuffEv  screen.o
    0x0800dea6   0x00000026   Code   RO         1476    t._ZN7Frame2DIsE7GetRectEv  tftili9486.o
    0x0800decc   0x00000028   Code   RO          274    t._ZN7Frame2DIsEclE3b2D  main.o
    0x0800def4   0x00000024   Code   RO          244    t._ZN7Frame2DIsEclE3b2DPt  main.o
    0x0800df18   0x0000002a   Code   RO         1976    t._ZN7storage3MapILi2EN6Physic8DustPartEfE5BeginEv  physic.o
    0x0800df42   0x00000002   PAD
    0x0800df44   0x00000010   Code   RO         1958    t._ZN7storage3MapILi2EN6Physic8DustPartEfEC1Ev  physic.o
    0x0800df54   0x00000004   Code   RO         1970    t._ZN7storage3MapILi2EN6Physic8DustPartEfEplEPS2_  physic.o
    0x0800df58   0x00000020   Code   RO         1964    t._ZN7storage3MapILi2EN6Physic8DustPartEfEplERS2_  physic.o
    0x0800df78   0x00000006   Code   RO         1209    t._ZN9AllocatorI6ScreenE3NewEv  screen.o
    0x0800df7e   0x00000008   Code   RO         1215    t._ZN9AllocatorI6ScreenE3NewI8tTextureEEPT_j  screen.o
    0x0800df86   0x00000006   Code   RO         1221    t._ZN9AllocatorI6ScreenE6DeleteI8tTextureEEiPT_  screen.o
    0x0800df8c   0x00000008   Code   RO          292    t._ZN9AllocatorI7Frame2DIsEE3NewEj  main.o
    0x0800df94   0x00000006   Code   RO         1784    t._ZN9AllocatorIN6Physic6Ball2DEE3NewEv  physic.o
    0x0800df9a   0x00000006   Code   RO         1796    t._ZN9AllocatorIN6Physic6Ball2DEE3NewI6lArrayIS1_EEEPT_v  physic.o
    0x0800dfa0   0x00000006   Code   RO         1808    t._ZN9AllocatorIN6Physic6Ball2DEE6DeleteI6lArrayIS1_EEEiPT_  physic.o
    0x0800dfa6   0x00000006   Code   RO         1802    t._ZN9AllocatorIN6Physic6Ball2DEE6DeleteIPS1_EEiPT_  physic.o
    0x0800dfac   0x00000006   Code   RO         1790    t._ZN9AllocatorIN6Physic6Ball2DEE9NewlArrayEj  physic.o
    0x0800dfb2   0x00000006   Code   RO         1886    t._ZN9AllocatorIN6Physic8DustPartEE3NewEv  physic.o
    0x0800dfb8   0x00000006   Code   RO         1191    t._ZN9AllocatorIvE3NewI4NodeI6ScreenhEEEPT_v  screen.o
    0x0800dfbe   0x00000006   Code   RO         1778    t._ZN9AllocatorIvE3NewI4NodeIN6Physic8DustPartEfEEEPT_v  physic.o
    0x0800dfc4   0x00000018   Code   RO         2508    x$fpl$basic         fz_wm.l(basic.o)
    0x0800dfdc   0x00000062   Code   RO         2310    x$fpl$d2f           fz_wm.l(d2f.o)
    0x0800e03e   0x00000002   PAD
    0x0800e040   0x00000150   Code   RO         2312    x$fpl$dadd          fz_wm.l(daddsub_clz.o)
    0x0800e190   0x000002b0   Code   RO         2511    x$fpl$ddiv          fz_wm.l(ddiv.o)
    0x0800e440   0x00000154   Code   RO         2318    x$fpl$dmul          fz_wm.l(dmul.o)
    0x0800e594   0x0000009c   Code   RO         2514    x$fpl$dnaninf       fz_wm.l(dnaninf.o)
    0x0800e630   0x0000000c   Code   RO         2516    x$fpl$dretinf       fz_wm.l(dretinf.o)
    0x0800e63c   0x00000016   Code   RO         2313    x$fpl$drsb          fz_wm.l(daddsub_clz.o)
    0x0800e652   0x00000002   PAD
    0x0800e654   0x000001d4   Code   RO         2314    x$fpl$dsub          fz_wm.l(daddsub_clz.o)
    0x0800e828   0x00000056   Code   RO         2320    x$fpl$f2d           fz_wm.l(f2d.o)
    0x0800e87e   0x0000008c   Code   RO         2518    x$fpl$fnaninf       fz_wm.l(fnaninf.o)
    0x0800e90a   0x0000000a   Code   RO         2633    x$fpl$fpinit        fz_wm.l(fpinit.o)
    0x0800e914   0x0000000a   Code   RO         2520    x$fpl$fretinf       fz_wm.l(fretinf.o)
    0x0800e91e   0x00000000   Code   RO         2522    x$fpl$usenofp       fz_wm.l(usenofp.o)
    0x0800e91e   0x00000800   Data   RO            7    .constdata          main.o
    0x0800f11e   0x00000002   PAD
    0x0800f120   0x00000044   Data   RO            8    .constdata          main.o
    0x0800f164   0x00000240   Data   RO            9    .constdata          main.o
    0x0800f3a4   0x00000008   Data   RO           10    .constdata          main.o
    0x0800f3ac   0x00000240   Data   RO           11    .constdata          main.o
    0x0800f5ec   0x00000008   Data   RO           12    .constdata          main.o
    0x0800f5f4   0x00000240   Data   RO           13    .constdata          main.o
    0x0800f834   0x00000008   Data   RO           14    .constdata          main.o
    0x0800f83c   0x00000240   Data   RO           15    .constdata          main.o
    0x0800fa7c   0x00000008   Data   RO           16    .constdata          main.o
    0x0800fa84   0x00000240   Data   RO           17    .constdata          main.o
    0x0800fcc4   0x00000008   Data   RO           18    .constdata          main.o
    0x0800fccc   0x00000240   Data   RO           19    .constdata          main.o
    0x0800ff0c   0x00000008   Data   RO           20    .constdata          main.o
    0x0800ff14   0x00000240   Data   RO           21    .constdata          main.o
    0x08010154   0x00000008   Data   RO           22    .constdata          main.o
    0x0801015c   0x00000240   Data   RO           23    .constdata          main.o
    0x0801039c   0x00000008   Data   RO           24    .constdata          main.o
    0x080103a4   0x00000240   Data   RO           25    .constdata          main.o
    0x080105e4   0x00000008   Data   RO           26    .constdata          main.o
    0x080105ec   0x00000240   Data   RO           27    .constdata          main.o
    0x0801082c   0x00000008   Data   RO           28    .constdata          main.o
    0x08010834   0x00000240   Data   RO           29    .constdata          main.o
    0x08010a74   0x00000008   Data   RO           30    .constdata          main.o
    0x08010a7c   0x00000240   Data   RO           31    .constdata          main.o
    0x08010cbc   0x00000008   Data   RO           32    .constdata          main.o
    0x08010cc4   0x00000240   Data   RO           33    .constdata          main.o
    0x08010f04   0x00000008   Data   RO           34    .constdata          main.o
    0x08010f0c   0x00000240   Data   RO           35    .constdata          main.o
    0x0801114c   0x00000008   Data   RO           36    .constdata          main.o
    0x08011154   0x00000240   Data   RO           37    .constdata          main.o
    0x08011394   0x00000008   Data   RO           38    .constdata          main.o
    0x0801139c   0x00000240   Data   RO           39    .constdata          main.o
    0x080115dc   0x00000008   Data   RO           40    .constdata          main.o
    0x080115e4   0x00000240   Data   RO           41    .constdata          main.o
    0x08011824   0x00000008   Data   RO           42    .constdata          main.o
    0x0801182c   0x00000240   Data   RO           43    .constdata          main.o
    0x08011a6c   0x00000008   Data   RO           44    .constdata          main.o
    0x08011a74   0x00000240   Data   RO           45    .constdata          main.o
    0x08011cb4   0x00000008   Data   RO           46    .constdata          main.o
    0x08011cbc   0x00000240   Data   RO           47    .constdata          main.o
    0x08011efc   0x00000008   Data   RO           48    .constdata          main.o
    0x08011f04   0x00000240   Data   RO           49    .constdata          main.o
    0x08012144   0x00000008   Data   RO           50    .constdata          main.o
    0x0801214c   0x00000240   Data   RO           51    .constdata          main.o
    0x0801238c   0x00000008   Data   RO           52    .constdata          main.o
    0x08012394   0x00000240   Data   RO           53    .constdata          main.o
    0x080125d4   0x00000008   Data   RO           54    .constdata          main.o
    0x080125dc   0x00000240   Data   RO           55    .constdata          main.o
    0x0801281c   0x00000008   Data   RO           56    .constdata          main.o
    0x08012824   0x00000240   Data   RO           57    .constdata          main.o
    0x08012a64   0x00000008   Data   RO           58    .constdata          main.o
    0x08012a6c   0x00000240   Data   RO           59    .constdata          main.o
    0x08012cac   0x00000008   Data   RO           60    .constdata          main.o
    0x08012cb4   0x00000240   Data   RO           61    .constdata          main.o
    0x08012ef4   0x00000008   Data   RO           62    .constdata          main.o
    0x08012efc   0x00000240   Data   RO           63    .constdata          main.o
    0x0801313c   0x00000008   Data   RO           64    .constdata          main.o
    0x08013144   0x00000240   Data   RO           65    .constdata          main.o
    0x08013384   0x00000008   Data   RO           66    .constdata          main.o
    0x0801338c   0x00000240   Data   RO           67    .constdata          main.o
    0x080135cc   0x00000008   Data   RO           68    .constdata          main.o
    0x080135d4   0x00000240   Data   RO           69    .constdata          main.o
    0x08013814   0x00000008   Data   RO           70    .constdata          main.o
    0x0801381c   0x00000240   Data   RO           71    .constdata          main.o
    0x08013a5c   0x00000008   Data   RO           72    .constdata          main.o
    0x08013a64   0x00000240   Data   RO           73    .constdata          main.o
    0x08013ca4   0x00000008   Data   RO           74    .constdata          main.o
    0x08013cac   0x00000240   Data   RO           75    .constdata          main.o
    0x08013eec   0x00000008   Data   RO           76    .constdata          main.o
    0x08013ef4   0x00000240   Data   RO           77    .constdata          main.o
    0x08014134   0x00000008   Data   RO           78    .constdata          main.o
    0x0801413c   0x00000240   Data   RO           79    .constdata          main.o
    0x0801437c   0x00000008   Data   RO           80    .constdata          main.o
    0x08014384   0x00000240   Data   RO           81    .constdata          main.o
    0x080145c4   0x00000240   Data   RO           82    .constdata          main.o
    0x08014804   0x00000008   Data   RO           83    .constdata          main.o
    0x0801480c   0x00000240   Data   RO           84    .constdata          main.o
    0x08014a4c   0x00000008   Data   RO           85    .constdata          main.o
    0x08014a54   0x00000240   Data   RO           86    .constdata          main.o
    0x08014c94   0x00000008   Data   RO           87    .constdata          main.o
    0x08014c9c   0x00000240   Data   RO           88    .constdata          main.o
    0x08014edc   0x00000008   Data   RO           89    .constdata          main.o
    0x08014ee4   0x00000240   Data   RO           90    .constdata          main.o
    0x08015124   0x00000008   Data   RO           91    .constdata          main.o
    0x0801512c   0x00000240   Data   RO           92    .constdata          main.o
    0x0801536c   0x00000008   Data   RO           93    .constdata          main.o
    0x08015374   0x00000240   Data   RO           94    .constdata          main.o
    0x080155b4   0x00000008   Data   RO           95    .constdata          main.o
    0x080155bc   0x00000240   Data   RO           96    .constdata          main.o
    0x080157fc   0x00000008   Data   RO           97    .constdata          main.o
    0x08015804   0x00000240   Data   RO           98    .constdata          main.o
    0x08015a44   0x00000008   Data   RO           99    .constdata          main.o
    0x08015a4c   0x00000240   Data   RO          100    .constdata          main.o
    0x08015c8c   0x00000008   Data   RO          101    .constdata          main.o
    0x08015c94   0x00000240   Data   RO          102    .constdata          main.o
    0x08015ed4   0x00000008   Data   RO          103    .constdata          main.o
    0x08015edc   0x00000240   Data   RO          104    .constdata          main.o
    0x0801611c   0x00000008   Data   RO          105    .constdata          main.o
    0x08016124   0x00000240   Data   RO          106    .constdata          main.o
    0x08016364   0x00000008   Data   RO          107    .constdata          main.o
    0x0801636c   0x00000240   Data   RO          108    .constdata          main.o
    0x080165ac   0x00000008   Data   RO          109    .constdata          main.o
    0x080165b4   0x00000240   Data   RO          110    .constdata          main.o
    0x080167f4   0x00000008   Data   RO          111    .constdata          main.o
    0x080167fc   0x00000240   Data   RO          112    .constdata          main.o
    0x08016a3c   0x00000008   Data   RO          113    .constdata          main.o
    0x08016a44   0x00000240   Data   RO          114    .constdata          main.o
    0x08016c84   0x00000008   Data   RO          115    .constdata          main.o
    0x08016c8c   0x00000240   Data   RO          116    .constdata          main.o
    0x08016ecc   0x00000008   Data   RO          117    .constdata          main.o
    0x08016ed4   0x00000240   Data   RO          118    .constdata          main.o
    0x08017114   0x00000008   Data   RO          119    .constdata          main.o
    0x0801711c   0x00000240   Data   RO          120    .constdata          main.o
    0x0801735c   0x00000008   Data   RO          121    .constdata          main.o
    0x08017364   0x00000240   Data   RO          122    .constdata          main.o
    0x080175a4   0x00000008   Data   RO          123    .constdata          main.o
    0x080175ac   0x00000240   Data   RO          124    .constdata          main.o
    0x080177ec   0x00000008   Data   RO          125    .constdata          main.o
    0x080177f4   0x00000240   Data   RO          126    .constdata          main.o
    0x08017a34   0x00000008   Data   RO          127    .constdata          main.o
    0x08017a3c   0x00000240   Data   RO          128    .constdata          main.o
    0x08017c7c   0x00000008   Data   RO          129    .constdata          main.o
    0x08017c84   0x00000240   Data   RO          130    .constdata          main.o
    0x08017ec4   0x00000008   Data   RO          131    .constdata          main.o
    0x08017ecc   0x00000240   Data   RO          132    .constdata          main.o
    0x0801810c   0x00000008   Data   RO          133    .constdata          main.o
    0x08018114   0x00000240   Data   RO          134    .constdata          main.o
    0x08018354   0x00000008   Data   RO          135    .constdata          main.o
    0x0801835c   0x00000240   Data   RO          136    .constdata          main.o
    0x0801859c   0x00000008   Data   RO          137    .constdata          main.o
    0x080185a4   0x00000240   Data   RO          138    .constdata          main.o
    0x080187e4   0x00000008   Data   RO          139    .constdata          main.o
    0x080187ec   0x00000240   Data   RO          140    .constdata          main.o
    0x08018a2c   0x00000008   Data   RO          141    .constdata          main.o
    0x08018a34   0x00000240   Data   RO          142    .constdata          main.o
    0x08018c74   0x00000008   Data   RO          143    .constdata          main.o
    0x08018c7c   0x00000240   Data   RO          144    .constdata          main.o
    0x08018ebc   0x00000008   Data   RO          145    .constdata          main.o
    0x08018ec4   0x00000240   Data   RO          146    .constdata          main.o
    0x08019104   0x00000008   Data   RO          147    .constdata          main.o
    0x0801910c   0x00000240   Data   RO          148    .constdata          main.o
    0x0801934c   0x00000008   Data   RO          149    .constdata          main.o
    0x08019354   0x00000240   Data   RO          150    .constdata          main.o
    0x08019594   0x00000008   Data   RO          151    .constdata          main.o
    0x0801959c   0x00000240   Data   RO          152    .constdata          main.o
    0x080197dc   0x00000008   Data   RO          153    .constdata          main.o
    0x080197e4   0x00000240   Data   RO          154    .constdata          main.o
    0x08019a24   0x00000008   Data   RO          155    .constdata          main.o
    0x08019a2c   0x00000240   Data   RO          156    .constdata          main.o
    0x08019c6c   0x00000008   Data   RO          157    .constdata          main.o
    0x08019c74   0x00000240   Data   RO          158    .constdata          main.o
    0x08019eb4   0x00000008   Data   RO          159    .constdata          main.o
    0x08019ebc   0x00000240   Data   RO          160    .constdata          main.o
    0x0801a0fc   0x00000008   Data   RO          161    .constdata          main.o
    0x0801a104   0x00000240   Data   RO          162    .constdata          main.o
    0x0801a344   0x00000008   Data   RO          163    .constdata          main.o
    0x0801a34c   0x00000240   Data   RO          164    .constdata          main.o
    0x0801a58c   0x00000008   Data   RO          165    .constdata          main.o
    0x0801a594   0x00000240   Data   RO          166    .constdata          main.o
    0x0801a7d4   0x00000008   Data   RO          167    .constdata          main.o
    0x0801a7dc   0x00000240   Data   RO          168    .constdata          main.o
    0x0801aa1c   0x00000008   Data   RO          169    .constdata          main.o
    0x0801aa24   0x00000240   Data   RO          170    .constdata          main.o
    0x0801ac64   0x00000008   Data   RO          171    .constdata          main.o
    0x0801ac6c   0x00000240   Data   RO          172    .constdata          main.o
    0x0801aeac   0x00000008   Data   RO          173    .constdata          main.o
    0x0801aeb4   0x00000240   Data   RO          174    .constdata          main.o
    0x0801b0f4   0x00000008   Data   RO          175    .constdata          main.o
    0x0801b0fc   0x00000240   Data   RO          176    .constdata          main.o
    0x0801b33c   0x00000008   Data   RO          177    .constdata          main.o
    0x0801b344   0x00000240   Data   RO          178    .constdata          main.o
    0x0801b584   0x00000008   Data   RO          179    .constdata          main.o
    0x0801b58c   0x00000240   Data   RO          180    .constdata          main.o
    0x0801b7cc   0x00000008   Data   RO          181    .constdata          main.o
    0x0801b7d4   0x00000240   Data   RO          182    .constdata          main.o
    0x0801ba14   0x00000008   Data   RO          183    .constdata          main.o
    0x0801ba1c   0x00000240   Data   RO          184    .constdata          main.o
    0x0801bc5c   0x00000008   Data   RO          185    .constdata          main.o
    0x0801bc64   0x00000240   Data   RO          186    .constdata          main.o
    0x0801bea4   0x00000008   Data   RO          187    .constdata          main.o
    0x0801beac   0x00000240   Data   RO          188    .constdata          main.o
    0x0801c0ec   0x00000008   Data   RO          189    .constdata          main.o
    0x0801c0f4   0x00000240   Data   RO          190    .constdata          main.o
    0x0801c334   0x00000008   Data   RO          191    .constdata          main.o
    0x0801c33c   0x00000240   Data   RO          192    .constdata          main.o
    0x0801c57c   0x00000008   Data   RO          193    .constdata          main.o
    0x0801c584   0x00000240   Data   RO          194    .constdata          main.o
    0x0801c7c4   0x00000008   Data   RO          195    .constdata          main.o
    0x0801c7cc   0x00000240   Data   RO          196    .constdata          main.o
    0x0801ca0c   0x00000008   Data   RO          197    .constdata          main.o
    0x0801ca14   0x000002f8   Data   RO          198    .constdata          main.o
    0x0801cd0c   0x00000010   Data   RO         1098    .constdata          stm32f4xx_hal_rcc.o
    0x0801cd1c   0x00000020   Data   RO         1770    .constdata          physic.o
    0x0801cd3c   0x00000004   PAD
    0x0801cd40   0x00000098   Data   RO         2325    .constdata          m_wm.l(atan.o)
    0x0801cdd8   0x00000020   Data   RO         2564    .constdata          m_wm.l(rredf.o)
    0x0801cdf8   0x00000010   Data   RO         1599    .constdata__ZTV12LcdDriverDef  device.o
    0x0801ce08   0x0000000c   Data   RO          225    .constdata__ZTVN6Physic11Ball2DGroupE  main.o
    0x0801ce14   0x00000020   Data   RO         2741    Region$$Table       anon$$obj.o
    0x0801ce34   0x00000004   Data   RO          203    .init_array         main.o
    0x0801ce38   0x00000004   Data   RO         1578    .init_array         device.o
    0x0801ce3c   0x00000000   Data   RO         2190    .init_array         c_w.l(init_aeabi.o)


    Execution Region RW_IRAM2 (Base: 0x10000000, Size: 0x00000000, Max: 0x00010000, ABSOLUTE)

    **** No section assigned to this execution region ****


    Execution Region RW_IRAM1 (Base: 0x20000000, Size: 0x0000aba8, Max: 0x00020000, ABSOLUTE)

    Base Addr    Size         Type   Attr      Idx    E Section Name        Object

    0x20000000   0x00000008   Data   RW          202    .data               main.o
    0x20000008   0x00000004   Data   RW          612    .data               stm32f4xx_hal.o
    0x2000000c   0x00000001   Data   RW         1577    .data               device.o
    0x2000000d   0x00000003   PAD
    0x20000010   0x00000014   Data   RW         2140    .data               system_stm32f4xx.o
    0x20000024   0x0000a1f4   Zero   RW            6    .bss                main.o
    0x2000a218   0x000001d0   Zero   RW         1150    .bss                init.o
    0x2000a3e8   0x00000014   Zero   RW         1428    .bss                gpio_ex.o
    0x2000a3fc   0x00000064   Zero   RW         1576    .bss                device.o
    0x2000a460   0x000000e4   Zero   RW         2175    .bss                c_w.l(rand.o)
    0x2000a544   0x00000060   Zero   RW         2361    .bss                c_w.l(libspace.o)
    0x2000a5a4   0x00000004   PAD
    0x2000a5a8   0x00000200   Zero   RW         2129    HEAP                startup_stm32f417xx.o
    0x2000a7a8   0x00000400   Zero   RW         2128    STACK               startup_stm32f417xx.o


==============================================================================

Image component sizes


      Code (inc. data)   RO Data    RW Data    ZI Data      Debug   Object Name

        72          0          0          0          0       2920   affine_tf.o
       154         40         20          1        100      12203   device.o
        98          0          0          0          0        912   dtostr.o
       940          0          0          0          0       8896   geometry.o
       228         10          0          0         20       3701   gpio_ex.o
      1136        100          0          0        464       3911   init.o
        18          0          0          0          0       2512   locker.o
      2040         86      58364          8      41460     310505   main.o
      1310        146          0          0          0      12680   memory_alloc.o
      3978         54         32          0          0      43116   physic.o
       942          6          0          0          0      30688   screen.o
        64         26        392          0       1536        836   startup_stm32f417xx.o
       364         26          0          4          0     254094   stm32f4xx_hal.o
       508         12          0          0          0     160858   stm32f4xx_hal_cortex.o
     18120        912          0          0          0      17250   stm32f4xx_hal_dma.o
       952         20          0          0          0       4111   stm32f4xx_hal_gpio.o
      2592        132         16          0          0       6863   stm32f4xx_hal_rcc.o
      4840         44          0          0          0      14760   stm32f4xx_hal_spi.o
       808          8          0          0          0       6768   stm32f4xx_hal_sram.o
      8556         60          0          0          0      32438   stm32f4xx_hal_tim.o
      2864         22          0          0          0      11894   stm32f4xx_hal_tim_ex.o
        44         10          0          0          0       1620   stm32f4xx_it.o
       884          8          0          0          0       6564   stm32f4xx_ll_fsmc.o
       232         44          0         20          0       1673   system_stm32f4xx.o
       428          0          0          0          0       7416   terminal_interface.o
      1066         16          0          0          0      16599   tftili9486.o

    ----------------------------------------------------------------------
     53240       1782      58862         36      43580     975788   Object Totals
         0          0         32          0          0          0   (incl. Generated)
         2          0          6          3          0          0   (incl. Padding)

    ----------------------------------------------------------------------

      Code (inc. data)   RO Data    RW Data    ZI Data      Debug   Library Member Name

         8          0          0          0          0         68   __main.o
         0          0          0          0          0          0   __rtentry.o
        12          0          0          0          0          0   __rtentry2.o
         6          0          0          0          0          0   __rtentry4.o
        52          8          0          0          0          0   __scatter.o
        26          0          0          0          0          0   __scatter_copy.o
        28          0          0          0          0          0   __scatter_zi.o
        22          0          0          0          0        100   _rserrno.o
        10          0          0          0          0         68   defsig_exit.o
        50          0          0          0          0         88   defsig_general.o
        80         58          0          0          0         76   defsig_rtmem_inner.o
        14          0          0          0          0         80   defsig_rtmem_outer.o
        12          0          0          0          0         72   exit.o
        94          0          0          0          0         80   h1_alloc.o
        52          0          0          0          0         68   h1_extend.o
        78          0          0          0          0         80   h1_free.o
        14          0          0          0          0         84   h1_init.o
         6          0          0          0          0        152   heapauxi.o
         4          0          0          0          0        136   hguard.o
         0          0          0          0          0          0   indicate_semi.o
        36         10          0          0          0         80   init_aeabi.o
       138          0          0          0          0        168   init_alloc.o
         2          0          0          0          0          0   libinit.o
        22          0          0          0          0          0   libinit2.o
         2          0          0          0          0          0   libshutdown.o
         8          0          0          0          0          0   libshutdown2.o
         8          4          0          0         96         68   libspace.o
         0          0          0          0          0          0   maybetermalloc1.o
       112         18          0          0        228        160   rand.o
         8          4          0          0          0         68   rt_ddtor_pointer_addr_intlibspace.o
         8          4          0          0          0         68   rt_errno_addr_intlibspace.o
         8          4          0          0          0         68   rt_heap_descriptor_intlibspace.o
       100          0          0          0          0         80   rt_memcpy_w.o
         2          0          0          0          0          0   rtexit.o
        10          0          0          0          0          0   rtexit2.o
        62          0          0          0          0         76   strlen.o
        12          4          0          0          0         68   sys_exit.o
        74          0          0          0          0         80   sys_stackheap_outer.o
        14          0          0          0          0         76   sys_wrch.o
         2          0          0          0          0         68   use_no_semi.o
        50          0          0          0          0         84   aeabi_atexit.o
        36          0          0          0          0         84   aeabi_vec_ctor_nocookie_nodtor.o
        34          0          0          0          0         84   aeabi_vec_dtor_noexceptions.o
        66          0          0          0          0         84   cxa_finalize.o
        24          0          0          0          0        164   basic.o
        98          4          0          0          0        140   d2f.o
       826         16          0          0          0        492   daddsub_clz.o
       688        140          0          0          0        256   ddiv.o
       340         12          0          0          0        152   dmul.o
       156          4          0          0          0        140   dnaninf.o
        12          0          0          0          0        116   dretinf.o
        86          4          0          0          0        132   f2d.o
       140          4          0          0          0        132   fnaninf.o
        10          0          0          0          0        116   fpinit.o
        10          0          0          0          0        116   fretinf.o
         0          0          0          0          0          0   usenofp.o
       728        106        152          0          0        228   atan.o
       336         56          0          0          0        136   cosf.o
        52          8          0          0          0        248   dunder.o
        24          0          0          0          0        124   fabs.o
        48          0          0          0          0        124   fpclassify.o
        38          0          0          0          0        116   fpclassifyf.o
        38         12          0          0          0        348   funder.o
       248          0          0          0          0        152   poly.o
       340         24         32          0          0        160   rredf.o
       400         56          0          0          0        212   sinf.o

    ----------------------------------------------------------------------
      6046        560        184          0        328       6420   Library Totals
        22          0          0          0          4          0   (incl. Padding)

    ----------------------------------------------------------------------

      Code (inc. data)   RO Data    RW Data    ZI Data      Debug   Library Name

      1196        114          0          0        324       2280   c_w.l
       186          0          0          0          0        336   cpprt_w.l
      2390        184          0          0          0       1956   fz_wm.l
      2252        262        184          0          0       1848   m_wm.l

    ----------------------------------------------------------------------
      6046        560        184          0        328       6420   Library Totals

    ----------------------------------------------------------------------

==============================================================================


      Code (inc. data)   RO Data    RW Data    ZI Data      Debug   

     59286       2342      59046         36      43908     962152   Grand Totals
     59286       2342      59046         36      43908     962152   ELF Image Totals
     59286       2342      59046         36          0          0   ROM Totals

==============================================================================

    Total RO  Size (Code + RO Data)               118332 ( 115.56kB)
    Total RW  Size (RW Data + ZI Data)             43944 (  42.91kB)
    Total ROM Size (Code + RO Data + RW Data)     118368 ( 115.59kB)

==============================================================================

